(dp0
S'0559+238'
p1
(lp2
S'05h59m32.03s'
p3
aS'+23d53\'53.9"'
p4
aS'2000.'
p5
asS'2023+544'
p6
(lp7
S'20h23m55.84s'
p8
aS'+54d27\'35.8"'
p9
aS'2000.'
p10
asS'1510-057'
p11
(lp12
S'15h10m53.55s'
p13
aS'-05d43\'06.4"'
p14
aS'2000.'
p15
asS'0650-166'
p16
(lp17
S'06h50m24.58s'
p18
aS'-16d37\'39.7"'
p19
aS'2000.'
p20
asS'SAGA'
p21
(lp22
S'17h42m30s'
p23
aS'-28d55\'00"'
p24
aS'1950.'
p25
asS'0604-424'
p26
(lp27
S'06h04m25.18s'
p28
aS'-42d25\'29.6"'
p29
aS'2000.'
p30
asS'2015+371'
p31
(lp32
S'20h15m28.73s'
p33
aS'+37d10\'59.5"'
p34
aS'2000.'
p35
asS'0442-28'
p36
(lp37
S'04h42m36.7s'
p38
aS'-28d15\'12.0"'
p39
aS'1950.'
p40
asS'283B'
p41
(lp42
S'14h55m32.00s'
p43
aS'-11d07\'11.0"'
p44
aS'1993.'
p45
asS'2340+135'
p46
(lp47
S'23h40m33.22s'
p48
aS'+13d33\'00.9"'
p49
aS'2000.'
p50
asS'2358-103'
p51
(lp52
S'23h58m10.88s'
p53
aS'-10d20\'08.6"'
p54
aS'2000.'
p55
asS'2101-423'
p56
(lp57
S'21h01m59.11s'
p58
aS'-42d19\'16.2"'
p59
aS'2000.'
p60
asS'2333+390'
p61
(lp62
S'23h33m02.53s'
p63
aS'+39d01\'12.0"'
p64
aS'2000.'
p65
asS'1344+141'
p66
(lp67
S'13h44m23.74s'
p68
aS'+14d09\'14.9"'
p69
aS'2000.'
p70
asS'0433+053'
p71
(lp72
S'04h33m11.10s'
p73
aS'+05d21\'15.6"'
p74
aS'2000.'
p75
asS'0645+213'
p76
(lp77
S'06h45m24.10s'
p78
aS'+21d21\'51.2"'
p79
aS'2000.'
p80
asS'0354+729'
p81
(lp82
S'03h54m54.99s'
p83
aS'+72d54\'38.5"'
p84
aS'2000.'
p85
asS'1619+062'
p86
(lp87
S'16h19m03.69s'
p88
aS'+06d13\'02.2"'
p89
aS'2000.'
p90
asS'0958+324'
p91
(lp92
S'09h58m20.95s'
p93
aS'+32d24\'02.2"'
p94
aS'2000.'
p95
asS'1048-191'
p96
(lp97
S'10h48m06.62s'
p98
aS'-19d09\'35.7"'
p99
aS'2000.'
p100
asS'2216+353'
p101
(lp102
S'22h16m20.01s'
p103
aS'+35d18\'14.3"'
p104
aS'2000.'
p105
asS'1227+365'
p106
(lp107
S'12h27m58.73s'
p108
aS'+36d35\'11.9"'
p109
aS'2000.'
p110
asS'1446+173'
p111
(lp112
S'14h46m35.35s'
p113
aS'+17d21\'07.5"'
p114
aS'2000.'
p115
asS'1951+574'
p116
(lp117
S'19h51m06.98s'
p118
aS'+57d27\'17.2"'
p119
aS'2000.'
p120
asS'1506+375'
p121
(lp122
S'15h06m09.53s'
p123
aS'+37d30\'51.1"'
p124
aS'2000.'
p125
asS'0739+016'
p126
(lp127
S'07h39m18.03s'
p128
aS'+01d37\'04.6"'
p129
aS'2000.'
p130
asS'3C353'
p131
(lp132
S'17h17m55.60s'
p133
aS'-00d55\'54.0"'
p134
aS'1950.'
p135
asS'0152+221'
p136
(lp137
S'01h52m18.06s'
p138
aS'+22d07\'07.7"'
p139
aS'2000.'
p140
asS'3C218'
p141
(lp142
S'09h18m06.00s'
p143
aS'-12d05\'45.0"'
p144
aS'2000.'
p145
asS'1645+635'
p146
(lp147
S'16h45m58.55s'
p148
aS'+63d30\'10.9"'
p149
aS'2000.'
p150
asS'0903+518'
p151
(lp152
S'09h03m58.58s'
p153
aS'+51d51\'00.7"'
p154
aS'2000.'
p155
asS'1035-201'
p156
(lp157
S'10h35m02.16s'
p158
aS'-20d11\'34.4"'
p159
aS'2000.'
p160
asS'1421+417'
p161
(lp162
S'14h21m05.88s'
p163
aS'+41d44\'49.5"'
p164
aS'2000.'
p165
asS'0122+250'
p166
(lp167
S'01h22m38.82s'
p168
aS'+25d02\'31.8"'
p169
aS'2000.'
p170
asS'1311-222'
p171
(lp172
S'13h11m39.33s'
p173
aS'-22d16\'41.7"'
p174
aS'2000.'
p175
asS'1657+570'
p176
(lp177
S'16h57m20.71s'
p178
aS'+57d05\'53.5"'
p179
aS'2000.'
p180
asS'0137+331'
p181
(lp182
S'01h37m41.30s'
p183
aS'+33d09\'35.1"'
p184
aS'2000.'
p185
asS'1133+006'
p186
(lp187
S'11h33m20.06s'
p188
aS'+00d40\'52.8"'
p189
aS'2000.'
p190
asS'1733-130'
p191
(lp192
S'17h33m02.71s'
p193
aS'-13d04\'49.5"'
p194
aS'2000.'
p195
asS'1218-460'
p196
(lp197
S'12h18m06.25s'
p198
aS'-46d00\'29.0"'
p199
aS'2000.'
p200
asS'0737+596'
p201
(lp202
S'07h37m30.09s'
p203
aS'+59d41\'03.2"'
p204
aS'2000.'
p205
asS'0121+118'
p206
(lp207
S'01h21m41.60s'
p208
aS'+11d49\'50.4"'
p209
aS'2000.'
p210
asS'1044+069'
p211
(lp212
S'10h44m55.91s'
p213
aS'+06d55\'38.3"'
p214
aS'2000.'
p215
asS'1631+494'
p216
(lp217
S'16h31m16.54s'
p218
aS'+49d27\'39.5"'
p219
aS'2000.'
p220
asS'B2314+038'
p221
(lp222
S'23h14m02.27s'
p223
aS'+03d48\'55.2"'
p224
aS'1950.'
p225
asS'1145+497'
p226
(lp227
S'11h45m43.37s'
p228
aS'+49d46\'08.1"'
p229
aS'2000.'
p230
asS'***'
p231
(lp232
S'VLA'
p233
aS'Calibrator'
p234
aS'List,'
p235
aS'J2000'
p236
aS'coordinates'
p237
asS'1835+613'
p238
(lp239
S'18h35m19.68s'
p240
aS'+61d19\'40.0"'
p241
aS'2000.'
p242
asS'1127-189'
p243
(lp244
S'11h27m04.39s'
p245
aS'-18d57\'17.4"'
p246
aS'2000.'
p247
asS'0231-395'
p248
(lp249
S'02h31m51.79s'
p250
aS'-39d35\'45.7"'
p251
aS'2000.'
p252
asS'1823+796'
p253
(lp254
S'18h23m14.11s'
p255
aS'+79d38\'49.0"'
p256
aS'2000.'
p257
asS'B1829+290'
p258
(lp259
S'18h29m18.11s'
p260
aS'+29d04\'59.4"'
p261
aS'1950.'
p262
asS'1845+401'
p263
(lp264
S'18h45m11.12s'
p265
aS'+40d07\'51.5"'
p266
aS'2000.'
p267
asS'1429+541'
p268
(lp269
S'14h29m21.88s'
p270
aS'+54d06\'11.1"'
p271
aS'2000.'
p272
asS'1305-105'
p273
(lp274
S'13h05m33.01s'
p275
aS'-10d33\'19.4"'
p276
aS'2000.'
p277
asS'0354+467'
p278
(lp279
S'03h54m30.02s'
p280
aS'+46d43\'18.8"'
p281
aS'2000.'
p282
asS'2340+266'
p283
(lp284
S'23h40m29.03s'
p285
aS'+26d41\'56.8"'
p286
aS'2000.'
p287
asS'0808-078'
p288
(lp289
S'08h08m15.54s'
p290
aS'-07d51\'09.9"'
p291
aS'2000.'
p292
asS'2007-445'
p293
(lp294
S'20h07m55.19s'
p295
aS'-44d34\'43.1"'
p296
aS'2000.'
p297
asS'0654+452'
p298
(lp299
S'06h54m23.71s'
p300
aS'+45d14\'23.5"'
p301
aS'2000.'
p302
asS'1200+730'
p303
(lp304
S'12h00m19.03s'
p305
aS'+73d00\'45.2"'
p306
aS'2000.'
p307
asS'2322+447'
p308
(lp309
S'23h22m20.36s'
p310
aS'+44d45\'42.4"'
p311
aS'2000.'
p312
asS'0016-002'
p313
(lp314
S'00h16m11.09s'
p315
aS'-00d15\'12.4"'
p316
aS'2000.'
p317
asS'2107+422'
p318
(lp319
S'21h07m01.59s'
p320
aS'+42d14\'10.2"'
p321
aS'2000.'
p322
asS'1415+371'
p323
(lp324
S'14h15m28.47s'
p325
aS'+37d06\'21.2"'
p326
aS'2000.'
p327
asS'0457-234'
p328
(lp329
S'04h57m03.18s'
p330
aS'-23d24\'52.0"'
p331
aS'2000.'
p332
asS'1806+698'
p333
(lp334
S'18h06m50.68s'
p335
aS'+69d49\'28.1"'
p336
aS'2000.'
p337
asS'0011-262'
p338
(lp339
S'00h11m01.25s'
p340
aS'-26d12\'33.4"'
p341
aS'2000.'
p342
asS'1550+054'
p343
(lp344
S'15h50m35.27s'
p345
aS'+05d27\'10.4"'
p346
aS'2000.'
p347
asS'0135+081'
p348
(lp349
S'01h35m15.00s'
p350
aS'+08d11\'07.1"'
p351
aS'2000.'
p352
asS'1146-247'
p353
(lp354
S'11h46m08.10s'
p355
aS'-24d47\'32.9"'
p356
aS'2000.'
p357
asS'2104-25'
p358
(lp359
S'21h04m24.9s'
p360
aS'-25d39\'06.0"'
p361
aS'1950.'
p362
asS'2255+420'
p363
(lp364
S'22h55m36.71s'
p365
aS'+42d02\'52.5"'
p366
aS'2000.'
p367
asS'1800+388'
p368
(lp369
S'18h00m24.77s'
p370
aS'+38d48\'30.7"'
p371
aS'2000.'
p372
asS'0753+425'
p373
(lp374
S'07h53m03.34s'
p375
aS'+42d31\'30.8"'
p376
aS'2000.'
p377
asS'1411+522'
p378
(lp379
S'14h11m20.65s'
p380
aS'+52d12\'09.1"'
p381
aS'2000.'
p382
asS'0644-349'
p383
(lp384
S'06h44m25.28s'
p385
aS'-34d59\'42.1"'
p386
aS'2000.'
p387
asS'2231+541'
p388
(lp389
S'22h31m19.02s'
p390
aS'+54d09\'35.9"'
p391
aS'2000.'
p392
asS'0054-035'
p393
(lp394
S'00h54m08.45s'
p395
aS'-03d33\'55.4"'
p396
aS'2000.'
p397
asS'275'
p398
(lp399
S'12h41m58.24s'
p400
aS'-04d44\'02.3"'
p401
aS'1993.'
p402
asS'2356+818'
p403
(lp404
S'23h56m22.79s'
p405
aS'+81d52\'52.3"'
p406
aS'2000.'
p407
asS'1640+397'
p408
(lp409
S'16h40m29.63s'
p410
aS'+39d46\'46.0"'
p411
aS'2000.'
p412
asS'0503+020'
p413
(lp414
S'05h03m21.20s'
p415
aS'+02d03\'04.7"'
p416
aS'2000.'
p417
asS'0547+273'
p418
(lp419
S'05h47m34.15s'
p420
aS'+27d21\'56.8"'
p421
aS'2000.'
p422
asS'0135-201'
p423
(lp424
S'01h35m37.51s'
p425
aS'-20d08\'45.9"'
p426
aS'2000.'
p427
asS'1810+567'
p428
(lp429
S'18h10m03.32s'
p430
aS'+56d49\'23.0"'
p431
aS'2000.'
p432
asS'1235-418'
p433
(lp434
S'12h35m41.93s'
p435
aS'-41d53\'18.0"'
p436
aS'2000.'
p437
asS'0237-233'
p438
(lp439
S'02h40m08.17s'
p440
aS'-23d09\'15.8"'
p441
aS'2000.'
p442
asS'0714+146'
p443
(lp444
S'07h14m04.64s'
p445
aS'+14d36\'20.6"'
p446
aS'2000.'
p447
asS'1435+760'
p448
(lp449
S'14h35m47.10s'
p450
aS'+76d05\'25.8"'
p451
aS'2000.'
p452
asS'1356-343'
p453
(lp454
S'13h56m05.38s'
p455
aS'-34d21\'10.8"'
p456
aS'2000.'
p457
asS'1531+721'
p458
(lp459
S'15h31m33.58s'
p460
aS'+72d06\'41.2"'
p461
aS'2000.'
p462
asS'0749-442'
p463
(lp464
S'07h49m42.26s'
p465
aS'-44d12\'29.5"'
p466
aS'2000.'
p467
asS'1139-138'
p468
(lp469
S'11h39m10.83s'
p470
aS'-13d50\'46.5"'
p471
aS'2000.'
p472
asS'0738-304'
p473
(lp474
S'07h38m19.79s'
p475
aS'-30d25\'04.9"'
p476
aS'2000.'
p477
asS'0334+080'
p478
(lp479
S'03h34m53.31s'
p480
aS'+08d00\'14.3"'
p481
aS'2000.'
p482
asS'1338+388'
p483
(lp484
S'13h38m49.78s'
p485
aS'+38d51\'11.9"'
p486
aS'2000.'
p487
asS'0321+123'
p488
(lp489
S'03h21m53.10s'
p490
aS'+12d21\'14.0"'
p491
aS'2000.'
p492
asS'1859+129'
p493
(lp494
S'18h59m23.40s'
p495
aS'+12d59\'11.9"'
p496
aS'2000.'
p497
asS'2344+824'
p498
(lp499
S'23h44m03.77s'
p500
aS'+82d26\'40.4"'
p501
aS'2000.'
p502
asS'1217+585'
p503
(lp504
S'12h17m11.02s'
p505
aS'+58d35\'26.2"'
p506
aS'2000.'
p507
asS'2120-102'
p508
(lp509
S'21h20m11.7s'
p510
aS'-10d16\'09.0"'
p511
aS'1950.'
p512
asS'1024-008'
p513
(lp514
S'10h24m29.59s'
p515
aS'-00d52\'55.5"'
p516
aS'2000.'
p517
asS'0022+002'
p518
(lp519
S'00h22m25.43s'
p520
aS'+00d14\'56.1"'
p521
aS'2000.'
p522
asS'2246-121'
p523
(lp524
S'22h46m18.23s'
p525
aS'-12d06\'51.3"'
p526
aS'2000.'
p527
asS'0253+385'
p528
(lp529
S'02h53m08.89s'
p530
aS'+38d35\'25.0"'
p531
aS'2000.'
p532
asS'0425+179'
p533
(lp534
S'04h25m24.46s'
p535
aS'+17d55\'25.1"'
p536
aS'2000.'
p537
asS'3C02'
p538
(lp539
S'00h03m48.90s'
p540
aS'-00d21\'09.0"'
p541
aS'1950.'
p542
asS'1832-105'
p543
(lp544
S'18h32m20.84s'
p545
aS'-10d35\'11.2"'
p546
aS'2000.'
p547
asS'0502+136'
p548
(lp549
S'05h02m33.22s'
p550
aS'+13d38\'10.8"'
p551
aS'2000.'
p552
asS'1109+377'
p553
(lp554
S'11h09m28.87s'
p555
aS'+37d44\'30.9"'
p556
aS'2000.'
p557
asS'0224+278'
p558
(lp559
S'02h24m12.30s'
p560
aS'+27d50\'12.0"'
p561
aS'2000.'
p562
asS'1254+116'
p563
(lp564
S'12h54m38.26s'
p565
aS'+11d41\'05.9"'
p566
aS'2000.'
p567
asS'0617+570'
p568
(lp569
S'06h17m16.92s'
p570
aS'+57d01\'16.4"'
p571
aS'2000.'
p572
asS'2008+522'
p573
(lp574
S'20h08m56.42s'
p575
aS'+52d13\'32.0"'
p576
aS'2000.'
p577
asS'0827-204'
p578
(lp579
S'08h27m17.21s'
p580
aS'-20d26\'21.7"'
p581
aS'2000.'
p582
asS'0836+414'
p583
(lp584
S'08h36m36.89s'
p585
aS'+41d25\'54.7"'
p586
aS'2000.'
p587
asS'0624+389'
p588
(lp589
S'06h24m19.02s'
p590
aS'+38d56\'48.7"'
p591
aS'2000.'
p592
asS'3C433'
p593
(lp594
S'21h23m25.00s'
p595
aS'+25d02\'17.0"'
p596
aS'1993.'
p597
asS'2241+098'
p598
(lp599
S'22h41m49.72s'
p600
aS'+09d53\'52.4"'
p601
aS'2000.'
p602
asS'0408+305'
p603
(lp604
S'04h08m20.38s'
p605
aS'+30d32\'30.5"'
p606
aS'2000.'
p607
asS'1852+403'
p608
(lp609
S'18h52m30.37s'
p610
aS'+40d19\'06.6"'
p611
aS'2000.'
p612
asS'1658+052'
p613
(lp614
S'16h58m33.45s'
p615
aS'+05d15\'16.4"'
p616
aS'2000.'
p617
asS'1407+284'
p618
(lp619
S'14h07m00.39s'
p620
aS'+28d27\'14.7"'
p621
aS'2000.'
p622
asS'1349-393'
p623
(lp624
S'13h49m51.17s'
p625
aS'-39d22\'50.3"'
p626
aS'2000.'
p627
asS'3C438'
p628
(lp629
S'21h53m46.00s'
p630
aS'+37d46\'13.0"'
p631
aS'1950.'
p632
asS'1404+658'
p633
(lp634
S'14h04m05.28s'
p635
aS'+65d51\'37.5"'
p636
aS'2000.'
p637
asS'0903+468'
p638
(lp639
S'09h03m03.99s'
p640
aS'+46d51\'04.1"'
p641
aS'2000.'
p642
asS'0336+323'
p643
(lp644
S'03h36m30.11s'
p645
aS'+32d18\'29.3"'
p646
aS'2000.'
p647
asS'1551+581'
p648
(lp649
S'15h51m58.21s'
p650
aS'+58d06\'44.5"'
p651
aS'2000.'
p652
asS'1513-102'
p653
(lp654
S'15h13m44.89s'
p655
aS'-10d12\'00.3"'
p656
aS'2000.'
p657
asS'1338-064'
p658
(lp659
S'13h38m08.20s'
p660
aS'-06d27\'08.8"'
p661
aS'2000.'
p662
asS'0343+363'
p663
(lp664
S'03h43m28.95s'
p665
aS'+36d22\'12.4"'
p666
aS'2000.'
p667
asS'1812-068'
p668
(lp669
S'18h12m50.90s'
p670
aS'-06d48\'24.7"'
p671
aS'2000.'
p672
asS'0932+531'
p673
(lp674
S'09h32m41.15s'
p675
aS'+53d06\'33.8"'
p676
aS'2000.'
p677
asS'1739+499'
p678
(lp679
S'17h39m27.39s'
p680
aS'+49d55\'03.4"'
p681
aS'2000.'
p682
asS'0706-231'
p683
(lp684
S'07h06m33.48s'
p685
aS'-23d11\'37.5"'
p686
aS'2000.'
p687
asS'0059-170'
p688
(lp689
S'00h59m06.68s'
p690
aS'-17d00\'38.5"'
p691
aS'2000.'
p692
asS'0939+832'
p693
(lp694
S'09h39m23.58s'
p695
aS'+83d15\'27.2"'
p696
aS'2000.'
p697
asS'1604+012'
p698
(lp699
S'16h04m45.29s'
p700
aS'+01d17\'51.2"'
p701
aS'2000.'
p702
asS'2011-157'
p703
(lp704
S'20h11m15.71s'
p705
aS'-15d46\'40.3"'
p706
aS'2000.'
p707
asS'1522-275'
p708
(lp709
S'15h22m37.68s'
p710
aS'-27d30\'10.8"'
p711
aS'2000.'
p712
asS'0745-007'
p713
(lp714
S'07h45m54.08s'
p715
aS'-00d44\'17.5"'
p716
aS'2000.'
p717
asS'2005+778'
p718
(lp719
S'20h05m31.00s'
p720
aS'+77d52\'43.2"'
p721
aS'2000.'
p722
asS'0110-076'
p723
(lp724
S'01h10m50.02s'
p725
aS'-07d41\'41.2"'
p726
aS'2000.'
p727
asS'0205+322'
p728
(lp729
S'02h05m04.93s'
p730
aS'+32d12\'30.1"'
p731
aS'2000.'
p732
asS'1635+381'
p733
(lp734
S'16h35m15.49s'
p735
aS'+38d08\'04.5"'
p736
aS'2000.'
p737
asS'3C219.0'
p738
(lp739
S'09h17m50.67s'
p740
aS'+45d51\'43.6"'
p741
aS'1950.'
p742
asS'3C94'
p743
(lp744
S'03h52m11.00s'
p745
aS'-07d12\'12"'
p746
aS'1993.'
p747
asS'0302+123'
p748
(lp749
S'03h02m30.55s'
p750
aS'+12d18\'56.8"'
p751
aS'2000.'
p752
asS'0431+206'
p753
(lp754
S'04h31m03.76s'
p755
aS'+20d37\'34.3"'
p756
aS'2000.'
p757
asS'2031+123'
p758
(lp759
S'20h31m54.99s'
p760
aS'+12d19\'41.3"'
p761
aS'2000.'
p762
asS'1146+588'
p763
(lp764
S'11h46m26.91s'
p765
aS'+58d48\'34.2"'
p766
aS'2000.'
p767
asS'0733+503'
p768
(lp769
S'07h33m52.52s'
p770
aS'+50d22\'09.1"'
p771
aS'2000.'
p772
asS'3C317'
p773
(lp774
S'15h16m24.00s'
p775
aS'+07d02\'48.0"'
p776
aS'1993.'
p777
asS'0221+359'
p778
(lp779
S'02h21m05.47s'
p780
aS'+35d56\'13.8"'
p781
aS'2000.'
p782
asS'0244+624'
p783
(lp784
S'02h44m57.70s'
p785
aS'+62d28\'06.5"'
p786
aS'2000.'
p787
asS'0240-231'
p788
(lp789
S'02h40m08.17s'
p790
aS'-23d09\'15.7"'
p791
aS'2000.'
p792
asS'1321+832'
p793
(lp794
S'13h21m45.59s'
p795
aS'+83d16\'13.4"'
p796
aS'2000.'
p797
asS'0552+032'
p798
(lp799
S'05h52m50.10s'
p800
aS'+03d13\'27.2"'
p801
aS'2000.'
p802
asS'1417+461'
p803
(lp804
S'14h17m08.16s'
p805
aS'+46d07\'05.4"'
p806
aS'2000.'
p807
asS'1716+686'
p808
(lp809
S'17h16m13.94s'
p810
aS'+68d36\'38.7"'
p811
aS'2000.'
p812
asS'1011+064'
p813
(lp814
S'10h11m00.00s'
p815
aS'+06d24\'23.8"'
p816
aS'2000.'
p817
asS'1558-141'
p818
(lp819
S'15h58m21.95s'
p820
aS'-14d09\'59.1"'
p821
aS'2000.'
p822
asS'3C318'
p823
(lp824
S'15h19m47.00s'
p825
aS'+20d17\'33.0"'
p826
aS'1993.'
p827
asS'1033-343'
p828
(lp829
S'10h33m13.09s'
p830
aS'-34d18\'45.4"'
p831
aS'2000.'
p832
asS'1448-163'
p833
(lp834
S'14h48m15.05s'
p835
aS'-16d20\'24.5"'
p836
aS'2000.'
p837
asS'2251+188'
p838
(lp839
S'22h51m34.74s'
p840
aS'+18d48\'40.1"'
p841
aS'2000.'
p842
asS'2050+041'
p843
(lp844
S'20h50m06.24s'
p845
aS'+04d07\'48.8"'
p846
aS'2000.'
p847
asS'0320-37'
p848
(lp849
S'03h20m42.0s'
p850
aS'-37d25\'00"'
p851
aS'1950.'
p852
asS'1922+155'
p853
(lp854
S'19h22m34.70s'
p855
aS'+15d30\'10.0"'
p856
aS'2000.'
p857
asS'0614+607'
p858
(lp859
S'06h14m23.87s'
p860
aS'+60d46\'21.8"'
p861
aS'2000.'
p862
asS'0753+538'
p863
(lp864
S'07h53m01.38s'
p865
aS'+53d52\'59.6"'
p866
aS'2000.'
p867
asS'1345+497'
p868
(lp869
S'13h45m26.37s'
p870
aS'+49d46\'32.9"'
p871
aS'2000.'
p872
asS'0114-211'
p873
(lp874
S'01h16m34.0s'
p875
aS'-20d54\'18"'
p876
aS'1993.'
p877
asS'1638+625'
p878
(lp879
S'16h38m28.21s'
p880
aS'+62d34\'44.3"'
p881
aS'2000.'
p882
asS'1156+314'
p883
(lp884
S'11h56m18.73s'
p885
aS'+31d28\'04.3"'
p886
aS'2000.'
p887
asS'3C48A'
p888
(lp889
S'01h14m49.83s'
p890
aS'+32d54\'20.5"'
p891
aS'1950.'
p892
asS'2051+746'
p893
(lp894
S'20h51m33.73s'
p895
aS'+74d41\'40.5"'
p896
aS'2000.'
p897
asS'1821+397'
p898
(lp899
S'18h21m59.70s'
p900
aS'+39d45\'59.5"'
p901
aS'2000.'
p902
asS'0840+132'
p903
(lp904
S'08h40m47.59s'
p905
aS'+13d12\'23.6"'
p906
aS'2000.'
p907
asS'2341-351'
p908
(lp909
S'23h41m45.89s'
p910
aS'-35d06\'22.1"'
p911
aS'2000.'
p912
asS'0510+180'
p913
(lp914
S'05h10m02.37s'
p915
aS'+18d00\'41.6"'
p916
aS'2000.'
p917
asS'2302-373'
p918
(lp919
S'23h02m23.89s'
p920
aS'-37d18\'06.8"'
p921
aS'2000.'
p922
asS'1203+480'
p923
(lp924
S'12h03m29.85s'
p925
aS'+48d03\'13.6"'
p926
aS'2000.'
p927
asS'2202+422'
p928
(lp929
S'22h02m43.29s'
p930
aS'+42d16\'40.0"'
p931
aS'2000.'
p932
asS'1639+865'
p933
(lp934
S'16h39m25.12s'
p935
aS'+86d31\'53.2"'
p936
aS'2000.'
p937
asS'1748+700'
p938
(lp939
S'17h48m32.84s'
p940
aS'+70d05\'50.8"'
p941
aS'2000.'
p942
asS'3C48X'
p943
(lp944
S'01h38m12.27s'
p945
aS'+33d12\'19.8"'
p946
aS'2009.01'
p947
asS'0925+003'
p948
(lp949
S'09h25m07.82s'
p950
aS'+00d19\'13.9"'
p951
aS'2000.'
p952
asS'0242-000'
p953
(lp954
S'02h42m40.73s'
p955
aS'-00d00\'47.2"'
p956
aS'2000.'
p957
asS'0437+296'
p958
(lp959
S'04h37m04.17s'
p960
aS'+29d40\'15.1"'
p961
aS'2000.'
p962
asS'0502+252'
p963
(lp964
S'05h02m58.58s'
p965
aS'+25d16\'24.2"'
p966
aS'2000.'
p967
asS'0958+474'
p968
(lp969
S'09h58m19.67s'
p970
aS'+47d25\'07.8"'
p971
aS'2000.'
p972
asS'1822-096'
p973
(lp974
S'18h22m28.70s'
p975
aS'-09d38\'56.8"'
p976
aS'2000.'
p977
asS'1646-224'
p978
(lp979
S'16h46m04.73s'
p980
aS'-22d27\'59.9"'
p981
aS'2000.'
p982
asS'0813+482'
p983
(lp984
S'08h13m36.05s'
p985
aS'+48d13\'02.3"'
p986
aS'2000.'
p987
asS'0457+067'
p988
(lp989
S'04h57m07.71s'
p990
aS'+06d45\'07.2"'
p991
aS'2000.'
p992
asS'1625-311'
p993
(lp994
S'16h25m55.44s'
p995
aS'-31d08\'08.3"'
p996
aS'2000.'
p997
asS'0512+152'
p998
(lp999
S'05h12m41.02s'
p1000
aS'+15d17\'23.4"'
p1001
aS'2000.'
p1002
asS'0729-366'
p1003
(lp1004
S'07h29m05.42s'
p1005
aS'-36d39\'45.2"'
p1006
aS'2000.'
p1007
asS'1300+506'
p1008
(lp1009
S'13h00m41.25s'
p1010
aS'+50d29\'36.8"'
p1011
aS'2000.'
p1012
asS'2009+724'
p1013
(lp1014
S'20h09m52.30s'
p1015
aS'+72d29\'19.4"'
p1016
aS'2000.'
p1017
asS'1534+015'
p1018
(lp1019
S'15h34m52.45s'
p1020
aS'+01d31\'04.2"'
p1021
aS'2000.'
p1022
asS'1209-402'
p1023
(lp1024
S'12h09m35.24s'
p1025
aS'-40d16\'13.1"'
p1026
aS'2000.'
p1027
asS'1142-116'
p1028
(lp1029
S'11h42m35.01s'
p1030
aS'-11d41\'47.8"'
p1031
aS'2000.'
p1032
asS'0735+478'
p1033
(lp1034
S'07h35m02.31s'
p1035
aS'+47d50\'08.4"'
p1036
aS'2000.'
p1037
asS'1035+564'
p1038
(lp1039
S'10h35m07.04s'
p1040
aS'+56d28\'46.8"'
p1041
aS'2000.'
p1042
asS'0044+663'
p1043
(lp1044
S'00h44m41.26s'
p1045
aS'+66d18\'41.1"'
p1046
aS'2000.'
p1047
asS'1941+104'
p1048
(lp1049
S'19h41m56.05s'
p1050
aS'+10d26\'48.5"'
p1051
aS'2000.'
p1052
asS'1830-211'
p1053
(lp1054
S'18h30m40.6s'
p1055
aS'-21d06\'04.0"'
p1056
aS'1950.'
p1057
asS'1317+344'
p1058
(lp1059
S'13h17m36.49s'
p1060
aS'+34d25\'15.9"'
p1061
aS'2000.'
p1062
asS'2031+549'
p1063
(lp1064
S'20h31m47.96s'
p1065
aS'+54d55\'03.1"'
p1066
aS'2000.'
p1067
asS'1327+434'
p1068
(lp1069
S'13h27m20.98s'
p1070
aS'+43d26\'28.0"'
p1071
aS'2000.'
p1072
asS'2149-130'
p1073
(lp1074
S'21h49m28.65s'
p1075
aS'-13d04\'25.2"'
p1076
aS'2000.'
p1077
asS'2254+247'
p1078
(lp1079
S'22h54m09.34s'
p1080
aS'+24d45\'23.4"'
p1081
aS'2000.'
p1082
asS'1646+409'
p1083
(lp1084
S'16h46m56.86s'
p1085
aS'+40d59\'17.2"'
p1086
aS'2000.'
p1087
asS'1829+399'
p1088
(lp1089
S'18h29m56.52s'
p1090
aS'+39d57\'34.7"'
p1091
aS'2000.'
p1092
asS'1936+715'
p1093
(lp1094
S'19h36m03.56s'
p1095
aS'+71d31\'31.8"'
p1096
aS'2000.'
p1097
asS'B2247+140'
p1098
(lp1099
S'22h47m56.33s'
p1100
aS'+14d03\'56.7"'
p1101
aS'1950.'
p1102
asS'0035-200'
p1103
(lp1104
S'00h35m08.78s'
p1105
aS'-20d03\'59.7"'
p1106
aS'2000.'
p1107
asS'0552+726'
p1108
(lp1109
S'05h52m53.00s'
p1110
aS'+72d40\'45.1"'
p1111
aS'2000.'
p1112
asS'1205-265'
p1113
(lp1114
S'12h05m33.22s'
p1115
aS'-26d34\'04.5"'
p1116
aS'2000.'
p1117
asS'1753+288'
p1118
(lp1119
S'17h53m42.47s'
p1120
aS'+28d48\'04.9"'
p1121
aS'2000.'
p1122
asS'B1416+067'
p1123
(lp1124
S'14h16m38.84s'
p1125
aS'+06d42\'20.7"'
p1126
aS'1950.'
p1127
asS'0412+230'
p1128
(lp1129
S'04h12m43.67s'
p1130
aS'+23d05\'05.5"'
p1131
aS'2000.'
p1132
asS'1939-154'
p1133
(lp1134
S'19h39m26.66s'
p1135
aS'-15d25\'43.1"'
p1136
aS'2000.'
p1137
asS'2248-325'
p1138
(lp1139
S'22h48m38.69s'
p1140
aS'-32d35\'52.2"'
p1141
aS'2000.'
p1142
asS'1258-223'
p1143
(lp1144
S'12h58m54.48s'
p1145
aS'-22d19\'31.2"'
p1146
aS'2000.'
p1147
asS'2025+032'
p1148
(lp1149
S'20h25m09.63s'
p1150
aS'+03d16\'44.4"'
p1151
aS'2000.'
p1152
asS'1409-269'
p1153
(lp1154
S'14h09m50.17s'
p1155
aS'-26d57\'37.0"'
p1156
aS'2000.'
p1157
asS'1006+349'
p1158
(lp1159
S'10h06m01.77s'
p1160
aS'+34d54\'10.3"'
p1161
aS'2000.'
p1162
asS'1400+621'
p1163
(lp1164
S'14h00m28.65s'
p1165
aS'+62d10\'38.5"'
p1166
aS'2000.'
p1167
asS'0954+745'
p1168
(lp1169
S'09h54m47.44s'
p1170
aS'+74d35\'57.1"'
p1171
aS'2000.'
p1172
asS'0658+693'
p1173
(lp1174
S'06h58m46.50s'
p1175
aS'+69d20\'49.7"'
p1176
aS'2000.'
p1177
asS'0609+480'
p1178
(lp1179
S'06h09m32.54s'
p1180
aS'+48d04\'15.6"'
p1181
aS'2000.'
p1182
asS'1834-126'
p1183
(lp1184
S'18h34m19.22s'
p1185
aS'-12d37\'40.9"'
p1186
aS'2000.'
p1187
asS'1224+035'
p1188
(lp1189
S'12h24m52.42s'
p1190
aS'+03d30\'50.3"'
p1191
aS'2000.'
p1192
asS'0238+166'
p1193
(lp1194
S'02h38m38.93s'
p1195
aS'+16d36\'59.3"'
p1196
aS'2000.'
p1197
asS'0539+145'
p1198
(lp1199
S'05h39m42.37s'
p1200
aS'+14d33\'45.6"'
p1201
aS'2000.'
p1202
asS'1617+027'
p1203
(lp1204
S'16h17m49.91s'
p1205
aS'+02d46\'43.1"'
p1206
aS'2000.'
p1207
asS'0239-025'
p1208
(lp1209
S'02h39m45.47s'
p1210
aS'-02d34\'40.9"'
p1211
aS'2000.'
p1212
asS'0306+627'
p1213
(lp1214
S'03h06m42.66s'
p1215
aS'+62d43\'02.0"'
p1216
aS'2000.'
p1217
asS'0141-271'
p1218
(lp1219
S'01h41m27.19s'
p1220
aS'-27d06\'07.1"'
p1221
aS'2000.'
p1222
asS'0050-094'
p1223
(lp1224
S'00h50m41.32s'
p1225
aS'-09d29\'05.2"'
p1226
aS'2000.'
p1227
asS'1423+480'
p1228
(lp1229
S'14h23m06.16s'
p1230
aS'+48d02\'10.8"'
p1231
aS'2000.'
p1232
asS'1103+220'
p1233
(lp1234
S'11h03m23.07s'
p1235
aS'+22d03\'37.5"'
p1236
aS'2000.'
p1237
asS'1330+251'
p1238
(lp1239
S'13h30m37.69s'
p1240
aS'+25d09\'11.0"'
p1241
aS'2000.'
p1242
asS'2349+387'
p1243
(lp1244
S'23h49m20.83s'
p1245
aS'+38d49\'17.6"'
p1246
aS'2000.'
p1247
asS'1924-292'
p1248
(lp1249
S'19h24m51.06s'
p1250
aS'-29d14\'30.1"'
p1251
aS'2000.'
p1252
asS'0741+271'
p1253
(lp1254
S'07h41m25.73s'
p1255
aS'+27d06\'45.4"'
p1256
aS'2000.'
p1257
asS'0319+415'
p1258
(lp1259
S'03h19m48.16s'
p1260
aS'+41d30\'42.1"'
p1261
aS'2000.'
p1262
asS'2057+509'
p1263
(lp1264
S'20h57m20.00s'
p1265
aS'+50d58\'16.2"'
p1266
aS'2000.'
p1267
asS'0005+383'
p1268
(lp1269
S'00h05m57.18s'
p1270
aS'+38d20\'15.1"'
p1271
aS'2000.'
p1272
asS'0423-013'
p1273
(lp1274
S'04h23m15.80s'
p1275
aS'-01d20\'33.1"'
p1276
aS'2000.'
p1277
asS'0148+389'
p1278
(lp1279
S'01h48m24.38s'
p1280
aS'+38d54\'05.2"'
p1281
aS'2000.'
p1282
asS'0018-127'
p1283
(lp1284
S'00h18m51.40s'
p1285
aS'-12d42\'33.2"'
p1286
aS'2000.'
p1287
asS'0204+152'
p1288
(lp1289
S'02h04m50.41s'
p1290
aS'+15d14\'11.0"'
p1291
aS'2000.'
p1292
asS'0707+611'
p1293
(lp1294
S'07h07m00.62s'
p1295
aS'+61d10\'11.6"'
p1296
aS'2000.'
p1297
asS'1941-154'
p1298
(lp1299
S'19h41m15.03s'
p1300
aS'-15d24\'31.3"'
p1301
aS'2000.'
p1302
asS'2158-150'
p1303
(lp1304
S'21h58m06.28s'
p1305
aS'-15d01\'09.3"'
p1306
aS'2000.'
p1307
asS'1219+484'
p1308
(lp1309
S'12h19m06.41s'
p1310
aS'+48d29\'56.2"'
p1311
aS'2000.'
p1312
asS'2022+616'
p1313
(lp1314
S'20h22m06.68s'
p1315
aS'+61d36\'58.8"'
p1316
aS'2000.'
p1317
asS'1604-446'
p1318
(lp1319
S'16h04m31.02s'
p1320
aS'-44d41\'31.9"'
p1321
aS'2000.'
p1322
asS'1248+583'
p1323
(lp1324
S'12h48m18.78s'
p1325
aS'+58d20\'28.7"'
p1326
aS'2000.'
p1327
asS'0325+226'
p1328
(lp1329
S'03h25m36.81s'
p1330
aS'+22d24\'00.4"'
p1331
aS'2000.'
p1332
asS'0040-017'
p1333
(lp1334
S'00h40m57.61s'
p1335
aS'-01d46\'32.1"'
p1336
aS'2000.'
p1337
asS'1753+441'
p1338
(lp1339
S'17h53m22.65s'
p1340
aS'+44d09\'45.7"'
p1341
aS'2000.'
p1342
asS'0118-216'
p1343
(lp1344
S'01h18m57.26s'
p1345
aS'-21d41\'30.0"'
p1346
aS'2000.'
p1347
asS'0348-278'
p1348
(lp1349
S'03h48m38.15s'
p1350
aS'-27d49\'13.3"'
p1351
aS'2000.'
p1352
asS'1153+809'
p1353
(lp1354
S'11h53m12.50s'
p1355
aS'+80d58\'29.2"'
p1356
aS'2000.'
p1357
asS'CRAB'
p1358
(lp1359
S'05h31m30.0s'
p1360
aS'+21d58\'0.0"'
p1361
aS'1950.'
p1362
asS'0209+724'
p1363
(lp1364
S'02h09m51.79s'
p1365
aS'+72d29\'26.7"'
p1366
aS'2000.'
p1367
asS'0539-158'
p1368
(lp1369
S'05h39m32.01s'
p1370
aS'-15d50\'30.3"'
p1371
aS'2000.'
p1372
asS'0259+425'
p1373
(lp1374
S'02h59m37.68s'
p1375
aS'+42d35\'49.9"'
p1376
aS'2000.'
p1377
asS'0203-438'
p1378
(lp1379
S'02h03m40.75s'
p1380
aS'-43d49\'50.8"'
p1381
aS'2000.'
p1382
asS'1632+825'
p1383
(lp1384
S'16h32m32.01s'
p1385
aS'+82d32\'16.4"'
p1386
aS'2000.'
p1387
asS'0006-000'
p1388
(lp1389
S'00h06m22.63s'
p1390
aS'-00d04\'24.1"'
p1391
aS'2000.'
p1392
asS'1606+314'
p1393
(lp1394
S'16h06m08.52s'
p1395
aS'+31d24\'46.4"'
p1396
aS'2000.'
p1397
asS'0958+655'
p1398
(lp1399
S'09h58m47.25s'
p1400
aS'+65d33\'54.8"'
p1401
aS'2000.'
p1402
asS'1510+570'
p1403
(lp1404
S'15h10m02.92s'
p1405
aS'+57d02\'43.4"'
p1406
aS'2000.'
p1407
asS'1651+014'
p1408
(lp1409
S'16h51m03.66s'
p1410
aS'+01d29\'23.5"'
p1411
aS'2000.'
p1412
asS'1526-138'
p1413
(lp1414
S'15h26m59.44s'
p1415
aS'-13d51\'00.1"'
p1416
aS'2000.'
p1417
asS'3C283B'
p1418
(lp1419
S'14h55m32.00s'
p1420
aS'-11d07\'11.0"'
p1421
aS'1993.'
p1422
asS'0651+691'
p1423
(lp1424
S'06h51m54.95s'
p1425
aS'+69d11\'12.7"'
p1426
aS'2000.'
p1427
asS'1324+408'
p1428
(lp1429
S'13h24m12.09s'
p1430
aS'+40d48\'11.8"'
p1431
aS'2000.'
p1432
asS'2021+233'
p1433
(lp1434
S'20h21m03.48s'
p1435
aS'+23d18\'35.7"'
p1436
aS'2000.'
p1437
asS'0402-317'
p1438
(lp1439
S'04h02m21.27s'
p1440
aS'-31d47\'25.9"'
p1441
aS'2000.'
p1442
asS'0728+146'
p1443
(lp1444
S'07h28m10.35s'
p1445
aS'+14d37\'36.0"'
p1446
aS'2000.'
p1447
asS'2050+314'
p1448
(lp1449
S'20h50m51.13s'
p1450
aS'+31d27\'27.4"'
p1451
aS'2000.'
p1452
asS'0217+017'
p1453
(lp1454
S'02h17m48.95s'
p1455
aS'+01d44\'49.7"'
p1456
aS'2000.'
p1457
asS'3C296'
p1458
(lp1459
S'14h14m23.00s'
p1460
aS'+08d31\'13.0"'
p1461
aS'1950.'
p1462
asS'1700-261'
p1463
(lp1464
S'17h00m53.15s'
p1465
aS'-26d10\'51.7"'
p1466
aS'2000.'
p1467
asS'3C295'
p1468
(lp1469
S'14h09m33.49s'
p1470
aS'+52d26\'13.0"'
p1471
aS'1950.'
p1472
asS'0114+483'
p1473
(lp1474
S'01h14m23.51s'
p1475
aS'+48d23\'53.1"'
p1476
aS'2000.'
p1477
asS'0416-209'
p1478
(lp1479
S'04h16m04.36s'
p1480
aS'-20d56\'27.7"'
p1481
aS'2000.'
p1482
asS'3C298'
p1483
(lp1484
S'14h16m38.84s'
p1485
aS'+06d42\'20.7"'
p1486
aS'1950.'
p1487
asS'1744+402'
p1488
(lp1489
S'17h44m25.10s'
p1490
aS'+40d14\'48.1"'
p1491
aS'2000.'
p1492
asS'1335+457'
p1493
(lp1494
S'13h35m21.96s'
p1495
aS'+45d42\'38.3"'
p1496
aS'2000.'
p1497
asS'1013+248'
p1498
(lp1499
S'10h13m53.43s'
p1500
aS'+24d49\'16.4"'
p1501
aS'2000.'
p1502
asS'0501+139'
p1503
(lp1504
S'05h01m45.27s'
p1505
aS'+13d56\'07.2"'
p1506
aS'2000.'
p1507
asS'2206-185'
p1508
(lp1509
S'22h06m10.41s'
p1510
aS'-18d35\'38.8"'
p1511
aS'2000.'
p1512
asS'1018+357'
p1513
(lp1514
S'10h18m10.99s'
p1515
aS'+35d42\'39.4"'
p1516
aS'2000.'
p1517
asS'2003-328'
p1518
(lp1519
S'20h03m24.12s'
p1520
aS'-32d51\'45.1"'
p1521
aS'2000.'
p1522
asS'0025+393'
p1523
(lp1524
S'00h25m26.15s'
p1525
aS'+39d19\'35.4"'
p1526
aS'2000.'
p1527
asS'1159-096'
p1528
(lp1529
S'11h59m12.71s'
p1530
aS'-09d40\'52.0"'
p1531
aS'2000.'
p1532
asS'1308-098'
p1533
(lp1534
S'13h08m39.17s'
p1535
aS'-09d50\'32.7"'
p1536
aS'2000.'
p1537
asS'1153+406'
p1538
(lp1539
S'11h53m54.66s'
p1540
aS'+40d36\'52.6"'
p1541
aS'2000.'
p1542
asS'2049+100'
p1543
(lp1544
S'20h49m45.86s'
p1545
aS'+10d03\'14.4"'
p1546
aS'2000.'
p1547
asS'1145-228'
p1548
(lp1549
S'11h45m22.05s'
p1550
aS'-22d50\'31.4"'
p1551
aS'2000.'
p1552
asS'0337+507'
p1553
(lp1554
S'03h37m43.67s'
p1555
aS'+50d45\'56.2"'
p1556
aS'2000.'
p1557
asS'0700+171'
p1558
(lp1559
S'07h00m01.53s'
p1560
aS'+17d09\'21.7"'
p1561
aS'2000.'
p1562
asS'0029+349'
p1563
(lp1564
S'00h29m14.24s'
p1565
aS'+34d56\'32.2"'
p1566
aS'2000.'
p1567
asS'0106-405'
p1568
(lp1569
S'01h06m45.11s'
p1570
aS'-40d34\'20.0"'
p1571
aS'2000.'
p1572
asS'1607-335'
p1573
(lp1574
S'16h07m34.76s'
p1575
aS'-33d31\'08.9"'
p1576
aS'2000.'
p1577
asS'3C192'
p1578
(lp1579
S'08h02m35.28s'
p1580
aS'+24d18\'32.2"'
p1581
aS'1950.'
p1582
asS'1146+539'
p1583
(lp1584
S'11h46m44.21s'
p1585
aS'+53d56\'43.0"'
p1586
aS'2000.'
p1587
asS'3C446'
p1588
(lp1589
S'22h25m25.00s'
p1590
aS'-04d59\'10.0"'
p1591
aS'1993.'
p1592
asS'3C196'
p1593
(lp1594
S'08h09m59.41s'
p1595
aS'+48d22\'07.2"'
p1596
aS'1950.'
p1597
asS'0603+219'
p1598
(lp1599
S'06h03m51.56s'
p1600
aS'+21d59\'37.7"'
p1601
aS'2000.'
p1602
asS'1735+362'
p1603
(lp1604
S'17h35m48.09s'
p1605
aS'+36d16\'45.6"'
p1606
aS'2000.'
p1607
asS'1123+055'
p1608
(lp1609
S'11h23m09.12s'
p1610
aS'+05d30\'20.8"'
p1611
aS'2000.'
p1612
asS'1130-148'
p1613
(lp1614
S'11h30m07.05s'
p1615
aS'-14d49\'27.4"'
p1616
aS'2000.'
p1617
asS'0108+015'
p1618
(lp1619
S'01h08m38.77s'
p1620
aS'+01d35\'00.3"'
p1621
aS'2000.'
p1622
asS'0423+418'
p1623
(lp1624
S'04h23m56.01s'
p1625
aS'+41d50\'02.7"'
p1626
aS'2000.'
p1627
asS'3C468.1'
p1628
(lp1629
S'23h48m27.45s'
p1630
aS'+64d23\'37.0"'
p1631
aS'1950.'
p1632
asS'0834+555'
p1633
(lp1634
S'08h34m54.90s'
p1635
aS'+55d34\'21.1"'
p1636
aS'2000.'
p1637
asS'0903+679'
p1638
(lp1639
S'09h03m53.16s'
p1640
aS'+67d57\'22.7"'
p1641
aS'2000.'
p1642
asS'1549+506'
p1643
(lp1644
S'15h49m17.47s'
p1645
aS'+50d38\'05.8"'
p1646
aS'2000.'
p1647
asS'1357+193'
p1648
(lp1649
S'13h57m04.44s'
p1650
aS'+19d19\'07.4"'
p1651
aS'2000.'
p1652
asS'0259+077'
p1653
(lp1654
S'02h59m27.08s'
p1655
aS'+07d47\'39.6"'
p1656
aS'2000.'
p1657
asS'2109-411'
p1658
(lp1659
S'21h09m33.19s'
p1660
aS'-41d10\'20.6"'
p1661
aS'2000.'
p1662
asS'2229-085'
p1663
(lp1664
S'22h29m40.08s'
p1665
aS'-08d32\'54.4"'
p1666
aS'2000.'
p1667
asS'1148-00'
p1668
(lp1669
S'11h48m10.13s'
p1670
aS'-00d07\'13.2"'
p1671
aS'1950.'
p1672
asS'0312-148'
p1673
(lp1674
S'03h12m46.40s'
p1675
aS'-14d49\'52.1"'
p1676
aS'2000.'
p1677
asS'0625+446'
p1678
(lp1679
S'06h25m18.27s'
p1680
aS'+44d40\'01.6"'
p1681
aS'2000.'
p1682
asS'1112-219'
p1683
(lp1684
S'11h12m49.87s'
p1685
aS'-21d58\'29.6"'
p1686
aS'2000.'
p1687
asS'0808+408'
p1688
(lp1689
S'08h08m56.65s'
p1690
aS'+40d52\'44.9"'
p1691
aS'2000.'
p1692
asS'1308+357'
p1693
(lp1694
S'13h08m23.70s'
p1695
aS'+35d46\'37.2"'
p1696
aS'2000.'
p1697
asS'3C227'
p1698
(lp1699
S'09h47m46.40s'
p1700
aS'+07d25\'12.0"'
p1701
aS'2000.'
p1702
asS'1620+490'
p1703
(lp1704
S'16h20m31.23s'
p1705
aS'+49d01\'53.3"'
p1706
aS'2000.'
p1707
asS'0750+482'
p1708
(lp1709
S'07h50m20.43s'
p1710
aS'+48d14\'53.7"'
p1711
aS'2000.'
p1712
asS'1624+568'
p1713
(lp1714
S'16h24m32.18s'
p1715
aS'+56d52\'28.0"'
p1716
aS'2000.'
p1717
asS'0447-220'
p1718
(lp1719
S'04h47m37.28s'
p1720
aS'-22d03\'36.8"'
p1721
aS'2000.'
p1722
asS'1553+129'
p1723
(lp1724
S'15h53m32.70s'
p1725
aS'+12d56\'51.7"'
p1726
aS'2000.'
p1727
asS'2236-145'
p1728
(lp1729
S'22h36m34.09s'
p1730
aS'-14d33\'22.2"'
p1731
aS'2000.'
p1732
asS'0750+125'
p1733
(lp1734
S'07h50m52.05s'
p1735
aS'+12d31\'04.8"'
p1736
aS'2000.'
p1737
asS'3C228'
p1738
(lp1739
S'09h49m48.00s'
p1740
aS'+14d21\'59.0"'
p1741
aS'1993.'
p1742
asS'0806+450'
p1743
(lp1744
S'08h06m33.47s'
p1745
aS'+45d04\'32.3"'
p1746
aS'2000.'
p1747
asS'1122+180'
p1748
(lp1749
S'11h22m29.71s'
p1750
aS'+18d05\'26.2"'
p1751
aS'2000.'
p1752
asS'1022+306'
p1753
(lp1754
S'10h22m30.30s'
p1755
aS'+30d41\'04.9"'
p1756
aS'2000.'
p1757
asS'3C348'
p1758
(lp1759
S'16h51m08.30s'
p1760
aS'+04d59\'26.0"'
p1761
aS'2000.'
p1762
asS'1147-074'
p1763
(lp1764
S'11h47m51.55s'
p1765
aS'-07d24\'41.1"'
p1766
aS'2000.'
p1767
asS'PUPA'
p1768
(lp1769
S'08h21m00.0s'
p1770
aS'-42d50\'00.0"'
p1771
aS'1950.'
p1772
asS'0930+350'
p1773
(lp1774
S'09h30m55.28s'
p1775
aS'+35d03\'37.6"'
p1776
aS'2000.'
p1777
asS'1422-297'
p1778
(lp1779
S'14h22m32.4s'
p1780
aS'-29d46\'27"'
p1781
aS'1950.'
p1782
asS'2129-156'
p1783
(lp1784
S'21h29m12.18s'
p1785
aS'-15d38\'41.0"'
p1786
aS'2000.'
p1787
asS'2354+458'
p1788
(lp1789
S'23h54m21.68s'
p1790
aS'+45d53\'04.2"'
p1791
aS'2000.'
p1792
asS'2151-304'
p1793
(lp1794
S'21h51m55.52s'
p1795
aS'-30d27\'53.7"'
p1796
aS'2000.'
p1797
asS'3C343'
p1798
(lp1799
S'16h48m40.50s'
p1800
aS'+05d04\'32.0"'
p1801
aS'1950.'
p1802
asS'0832+492'
p1803
(lp1804
S'08h32m23.22s'
p1805
aS'+49d13\'21.0"'
p1806
aS'2000.'
p1807
asS'0121+043'
p1808
(lp1809
S'01h21m56.86s'
p1810
aS'+04d22\'24.7"'
p1811
aS'2000.'
p1812
asS'1707+018'
p1813
(lp1814
S'17h07m34.42s'
p1815
aS'+01d48\'45.7"'
p1816
aS'2000.'
p1817
asS'2232+117'
p1818
(lp1819
S'22h32m36.41s'
p1820
aS'+11d43\'50.9"'
p1821
aS'2000.'
p1822
asS'1735+508'
p1823
(lp1824
S'17h35m49.01s'
p1825
aS'+50d49\'11.6"'
p1826
aS'2000.'
p1827
asS'0433+29'
p1828
(lp1829
S'04h33m55.4s'
p1830
aS'+29d34\'13.7"'
p1831
aS'1950.'
p1832
asS'0518-46'
p1833
(lp1834
S'05h14m18.5s'
p1835
aS'-45d59\'54.0"'
p1836
aS'1950.'
p1837
asS'0922-399'
p1838
(lp1839
S'09h22m46.42s'
p1840
aS'-39d59\'35.1"'
p1841
aS'2000.'
p1842
asS'1147-382'
p1843
(lp1844
S'11h47m01.37s'
p1845
aS'-38d12\'11.0"'
p1846
aS'2000.'
p1847
asS'2350+646'
p1848
(lp1849
S'23h50m54.92s'
p1850
aS'+64d40\'17.8"'
p1851
aS'2000.'
p1852
asS'0728+570'
p1853
(lp1854
S'07h28m49.63s'
p1855
aS'+57d01\'24.4"'
p1856
aS'2000.'
p1857
asS'1308+657'
p1858
(lp1859
S'13h08m22.42s'
p1860
aS'+65d44\'11.8"'
p1861
aS'2000.'
p1862
asS'0219+013'
p1863
(lp1864
S'02h19m07.03s'
p1865
aS'+01d20\'59.7"'
p1866
aS'2000.'
p1867
asS'0745+332'
p1868
(lp1869
S'07h45m59.33s'
p1870
aS'+33d13\'34.1"'
p1871
aS'2000.'
p1872
asS'2114-256'
p1873
(lp1874
S'21h14m40.04s'
p1875
aS'-25d41\'48.8"'
p1876
aS'2000.'
p1877
asS'0945+466'
p1878
(lp1879
S'09h45m42.09s'
p1880
aS'+46d36\'50.6"'
p1881
aS'2000.'
p1882
asS'0318+164'
p1883
(lp1884
S'03h18m57.80s'
p1885
aS'+16d28\'32.7"'
p1886
aS'2000.'
p1887
asS'0909+428'
p1888
(lp1889
S'09h09m33.50s'
p1890
aS'+42d53\'46.5"'
p1891
aS'2000.'
p1892
asS'2009+250'
p1893
(lp1894
S'20h09m25.11s'
p1895
aS'+25d05\'47.5"'
p1896
aS'2000.'
p1897
asS'2312+387'
p1898
(lp1899
S'23h12m58.79s'
p1900
aS'+38d47\'42.7"'
p1901
aS'2000.'
p1902
asS'6MAY06'
p1903
(lp1904
S'15h00m00.00s'
p1905
aS'+01d56\'44.5"'
p1906
aS'2006.'
p1907
asS'0821+470'
p1908
(lp1909
S'08h21m33.82s'
p1910
aS'+47d02\'37.1"'
p1911
aS'2000.'
p1912
asS'2333-237'
p1913
(lp1914
S'23h33m55.24s'
p1915
aS'-23d43\'40.7"'
p1916
aS'2000.'
p1917
asS'0155-408'
p1918
(lp1919
S'01h55m37.06s'
p1920
aS'-40d48\'42.4"'
p1921
aS'2000.'
p1922
asS'0323+055'
p1923
(lp1924
S'03h23m20.26s'
p1925
aS'+05d34\'11.9"'
p1926
aS'2000.'
p1927
asS'283A'
p1928
(lp1929
S'13h11m16.00s'
p1930
aS'-22d14\'33.0"'
p1931
aS'1993.'
p1932
asS'1842+681'
p1933
(lp1934
S'18h42m33.64s'
p1935
aS'+68d09\'25.2"'
p1936
aS'2000.'
p1937
asS'1923-210'
p1938
(lp1939
S'19h23m32.19s'
p1940
aS'-21d04\'33.3"'
p1941
aS'2000.'
p1942
asS'0110+565'
p1943
(lp1944
S'01h10m57.56s'
p1945
aS'+56d32\'16.9"'
p1946
aS'2000.'
p1947
asS'0739+703'
p1948
(lp1949
S'07h39m23.68s'
p1950
aS'+70d23\'11.7"'
p1951
aS'2000.'
p1952
asS'2137-207'
p1953
(lp1954
S'21h37m50.00s'
p1955
aS'-20d42\'31.8"'
p1956
aS'2000.'
p1957
asS'2146-154'
p1958
(lp1959
S'21h46m22.98s'
p1960
aS'-15d25\'43.9"'
p1961
aS'2000.'
p1962
asS'1309+559'
p1963
(lp1964
S'13h09m09.75s'
p1965
aS'+55d57\'38.2"'
p1966
aS'2000.'
p1967
asS'1438-220'
p1968
(lp1969
S'14h38m09.47s'
p1970
aS'-22d04\'54.7"'
p1971
aS'2000.'
p1972
asS'0040+331'
p1973
(lp1974
S'00h40m55.06s'
p1975
aS'+33d10\'08.3"'
p1976
aS'2000.'
p1977
asS'1549+214'
p1978
(lp1979
S'15h49m49.02s'
p1980
aS'+21d25\'38.9"'
p1981
aS'2000.'
p1982
asS'1852+489'
p1983
(lp1984
S'18h52m28.55s'
p1985
aS'+48d55\'47.5"'
p1986
aS'2000.'
p1987
asS'1323+797'
p1988
(lp1989
S'13h23m51.57s'
p1990
aS'+79d42\'51.9"'
p1991
aS'2000.'
p1992
asS'0459+024'
p1993
(lp1994
S'04h59m52.05s'
p1995
aS'+02d29\'31.2"'
p1996
aS'2000.'
p1997
asS'0112+227'
p1998
(lp1999
S'01h12m05.82s'
p2000
aS'+22d44\'38.8"'
p2001
aS'2000.'
p2002
asS'0952+352'
p2003
(lp2004
S'09h52m32.03s'
p2005
aS'+35d12\'52.4"'
p2006
aS'2000.'
p2007
asS'1830-360'
p2008
(lp2009
S'18h30m58.88s'
p2010
aS'-36d02\'30.1"'
p2011
aS'2000.'
p2012
asS'2250+714'
p2013
(lp2014
S'22h50m32.59s'
p2015
aS'+71d29\'19.1"'
p2016
aS'2000.'
p2017
asS'1154-350'
p2018
(lp2019
S'11h54m21.79s'
p2020
aS'-35d05\'29.0"'
p2021
aS'2000.'
p2022
asS'1749+433'
p2023
(lp2024
S'17h49m00.36s'
p2025
aS'+43d21\'51.3"'
p2026
aS'2000.'
p2027
asS'1313+675'
p2028
(lp2029
S'13h13m27.98s'
p2030
aS'+67d35\'50.4"'
p2031
aS'2000.'
p2032
asS'3C123'
p2033
(lp2034
S'04h33m55.00s'
p2035
aS'+29d34\'14.0"'
p2036
aS'1950.'
p2037
asS'1540+147'
p2038
(lp2039
S'15h40m49.49s'
p2040
aS'+14d47\'45.9"'
p2041
aS'2000.'
p2042
asS'1824+568'
p2043
(lp2044
S'18h24m07.07s'
p2045
aS'+56d51\'01.5"'
p2046
aS'2000.'
p2047
asS'0348+338'
p2048
(lp2049
S'03h48m46.90s'
p2050
aS'+33d53\'15.0"'
p2051
aS'2000.'
p2052
asS'2203+317'
p2053
(lp2054
S'22h03m14.98s'
p2055
aS'+31d45\'38.3"'
p2056
aS'2000.'
p2057
asS'1256+568'
p2058
(lp2059
S'12h56m14.23s'
p2060
aS'+56d52\'25.2"'
p2061
aS'2000.'
p2062
asS'1526+668'
p2063
(lp2064
S'15h26m42.87s'
p2065
aS'+66d50\'54.6"'
p2066
aS'2000.'
p2067
asS'0653+370'
p2068
(lp2069
S'06h53m58.28s'
p2070
aS'+37d05\'40.6"'
p2071
aS'2000.'
p2072
asS'0639+734'
p2073
(lp2074
S'06h39m21.96s'
p2075
aS'+73d24\'58.0"'
p2076
aS'2000.'
p2077
asS'0603+177'
p2078
(lp2079
S'06h03m09.13s'
p2080
aS'+17d42\'16.8"'
p2081
aS'2000.'
p2082
asS'1310+468'
p2083
(lp2084
S'13h10m53.59s'
p2085
aS'+46d53\'52.2"'
p2086
aS'2000.'
p2087
asS'1557-000'
p2088
(lp2089
S'15h57m51.43s'
p2090
aS'-00d01\'50.4"'
p2091
aS'2000.'
p2092
asS'0428-379'
p2093
(lp2094
S'04h28m40.42s'
p2095
aS'-37d56\'19.6"'
p2096
aS'2000.'
p2097
asS'1411+215'
p2098
(lp2099
S'14h11m54.86s'
p2100
aS'+21d34\'23.4"'
p2101
aS'2000.'
p2102
asS'0949+662'
p2103
(lp2104
S'09h49m12.21s'
p2105
aS'+66d14\'59.3"'
p2106
aS'2000.'
p2107
asS'1017-42'
p2108
(lp2109
S'10h17m56.23s'
p2110
aS'-42d36\'21.9"'
p2111
aS'1950.'
p2112
asS'0126+259'
p2113
(lp2114
S'01h26m42.79s'
p2115
aS'+25d59\'01.3"'
p2116
aS'2000.'
p2117
asS'0125-000'
p2118
(lp2119
S'01h25m28.84s'
p2120
aS'-00d05\'56.0"'
p2121
aS'2000.'
p2122
asS'1119-030'
p2123
(lp2124
S'11h19m25.30s'
p2125
aS'-03d02\'51.3"'
p2126
aS'2000.'
p2127
asS'3C161'
p2128
(lp2129
S'06h24m43.17s'
p2130
aS'-05d51\'11.6"'
p2131
aS'1950.'
p2132
asS'0228+673'
p2133
(lp2134
S'02h28m50.05s'
p2135
aS'+67d21\'03.0"'
p2136
aS'2000.'
p2137
asS'1739+476'
p2138
(lp2139
S'17h39m57.13s'
p2140
aS'+47d37\'58.4"'
p2141
aS'2000.'
p2142
asS'1208+542'
p2143
(lp2144
S'12h08m27.50s'
p2145
aS'+54d13\'19.5"'
p2146
aS'2000.'
p2147
asS'1613+342'
p2148
(lp2149
S'16h13m41.06s'
p2150
aS'+34d12\'47.9"'
p2151
aS'2000.'
p2152
asS'0744-064'
p2153
(lp2154
S'07h44m21.66s'
p2155
aS'-06d29\'35.9"'
p2156
aS'2000.'
p2157
asS'0449+635'
p2158
(lp2159
S'04h49m23.31s'
p2160
aS'+63d32\'09.4"'
p2161
aS'2000.'
p2162
asS'0629-199'
p2163
(lp2164
S'06h29m23.77s'
p2165
aS'-19d59\'19.6"'
p2166
aS'2000.'
p2167
asS'0827+354'
p2168
(lp2169
S'08h27m38.59s'
p2170
aS'+35d25\'05.1"'
p2171
aS'2000.'
p2172
asS'1041+061'
p2173
(lp2174
S'10h41m17.16s'
p2175
aS'+06d10\'16.9"'
p2176
aS'2000.'
p2177
asS'0805+617'
p2178
(lp2179
S'08h05m18.19s'
p2180
aS'+61d44\'23.7"'
p2181
aS'2000.'
p2182
asS'1746+624'
p2183
(lp2184
S'17h46m14.03s'
p2185
aS'+62d26\'54.7"'
p2186
aS'2000.'
p2187
asS'0429+671'
p2188
(lp2189
S'04h29m06.02s'
p2190
aS'+67d10\'16.6"'
p2191
aS'2000.'
p2192
asS'0604+442'
p2193
(lp2194
S'06h04m35.63s'
p2195
aS'+44d13\'58.6"'
p2196
aS'2000.'
p2197
asS'3C17'
p2198
(lp2199
S'00h35m47.12s'
p2200
aS'-02d24\'07.7"'
p2201
aS'1950.'
p2202
asS'0242+110'
p2203
(lp2204
S'02h42m29.17s'
p2205
aS'+11d01\'00.7"'
p2206
aS'2000.'
p2207
asS'0026+351'
p2208
(lp2209
S'00h26m41.72s'
p2210
aS'+35d08\'42.3"'
p2211
aS'2000.'
p2212
asS'0204-170'
p2213
(lp2214
S'02h04m57.67s'
p2215
aS'-17d01\'19.8"'
p2216
aS'2000.'
p2217
asS'0137-245'
p2218
(lp2219
S'01h37m38.35s'
p2220
aS'-24d30\'53.9"'
p2221
aS'2000.'
p2222
asS'1434+420'
p2223
(lp2224
S'14h34m05.70s'
p2225
aS'+42d03\'16.0"'
p2226
aS'2000.'
p2227
asS'1057-245'
p2228
(lp2229
S'10h57m55.42s'
p2230
aS'-24d33\'48.9"'
p2231
aS'2000.'
p2232
asS'2323-032'
p2233
(lp2234
S'23h23m31.95s'
p2235
aS'-03d17\'05.0"'
p2236
aS'2000.'
p2237
asS'0204+368'
p2238
(lp2239
S'02h04m55.60s'
p2240
aS'+36d49\'18.0"'
p2241
aS'2000.'
p2242
asS'1415+133'
p2243
(lp2244
S'14h15m58.82s'
p2245
aS'+13d20\'23.7"'
p2246
aS'2000.'
p2247
asS'1051+213'
p2248
(lp2249
S'10h51m48.79s'
p2250
aS'+21d19\'52.3"'
p2251
aS'2000.'
p2252
asS'2339-331'
p2253
(lp2254
S'23h39m54.54s'
p2255
aS'-33d10\'16.8"'
p2256
aS'2000.'
p2257
asS'3C452.0'
p2258
(lp2259
S'22h43m31.80s'
p2260
aS'+39d25\'31.0"'
p2261
aS'1950.'
p2262
asS'2321-163'
p2263
(lp2264
S'23h21m01.96s'
p2265
aS'-16d23\'05.2"'
p2266
aS'2000.'
p2267
asS'0424+006'
p2268
(lp2269
S'04h24m46.84s'
p2270
aS'+00d36\'06.3"'
p2271
aS'2000.'
p2272
asS'1724+400'
p2273
(lp2274
S'17h24m05.43s'
p2275
aS'+40d04\'36.5"'
p2276
aS'2000.'
p2277
asS'1021+219'
p2278
(lp2279
S'10h21m54.53s'
p2280
aS'+21d59\'30.4"'
p2281
aS'2000.'
p2282
asS'2212+239'
p2283
(lp2284
S'22h12m05.97s'
p2285
aS'+23d55\'40.5"'
p2286
aS'2000.'
p2287
asS'1454-402'
p2288
(lp2289
S'14h54m32.91s'
p2290
aS'-40d12\'32.5"'
p2291
aS'2000.'
p2292
asS'3C403'
p2293
(lp2294
S'19h51m55.00s'
p2295
aS'+02d29\'14.0"'
p2296
aS'1993.'
p2297
asS'0319+190'
p2298
(lp2299
S'03h19m51.26s'
p2300
aS'+19d01\'31.3"'
p2301
aS'2000.'
p2302
asS'1728+044'
p2303
(lp2304
S'17h28m24.95s'
p2305
aS'+04d27\'04.9"'
p2306
aS'2000.'
p2307
asS'0648-307'
p2308
(lp2309
S'06h48m14.10s'
p2310
aS'-30d44\'19.7"'
p2311
aS'2000.'
p2312
asS'1251-12'
p2313
(lp2314
S'12h51m59.5s'
p2315
aS'-12d17\'13.0"'
p2316
aS'1950.'
p2317
asS'0538-440'
p2318
(lp2319
S'05h38m50.36s'
p2320
aS'-44d05\'08.9"'
p2321
aS'2000.'
p2322
asS'1013+347'
p2323
(lp2324
S'10h13m49.61s'
p2325
aS'+34d45\'50.8"'
p2326
aS'2000.'
p2327
asS'3C444.0'
p2328
(lp2329
S'22h11m42.51s'
p2330
aS'-17d16\'33.7"'
p2331
aS'1950.'
p2332
asS'1159-224'
p2333
(lp2334
S'11h59m11.30s'
p2335
aS'-22d28\'37.1"'
p2336
aS'2000.'
p2337
asS'0608-223'
p2338
(lp2339
S'06h08m59.69s'
p2340
aS'-22d20\'20.9"'
p2341
aS'2000.'
p2342
asS'0742+490'
p2343
(lp2344
S'07h42m02.75s'
p2345
aS'+49d00\'15.6"'
p2346
aS'2000.'
p2347
asS'1357-154'
p2348
(lp2349
S'13h57m11.24s'
p2350
aS'-15d27\'28.8"'
p2351
aS'2000.'
p2352
asS'1642+398'
p2353
(lp2354
S'16h42m58.81s'
p2355
aS'+39d48\'37.0"'
p2356
aS'2000.'
p2357
asS'0743+396'
p2358
(lp2359
S'07h43m09.89s'
p2360
aS'+39d41\'30.8"'
p2361
aS'2000.'
p2362
asS'0508+845'
p2363
(lp2364
S'05h08m42.36s'
p2365
aS'+84d32\'04.5"'
p2366
aS'2000.'
p2367
asS'0616-349'
p2368
(lp2369
S'06h16m35.98s'
p2370
aS'-34d56\'16.6"'
p2371
aS'2000.'
p2372
asS'1512-090'
p2373
(lp2374
S'15h12m50.53s'
p2375
aS'-09d05\'59.8"'
p2376
aS'2000.'
p2377
asS'1915+658'
p2378
(lp2379
S'19h15m23.82s'
p2380
aS'+65d48\'46.4"'
p2381
aS'2000.'
p2382
asS'1257-319'
p2383
(lp2384
S'12h57m59.06s'
p2385
aS'-31d55\'16.9"'
p2386
aS'2000.'
p2387
asS'HERA'
p2388
(lp2389
S'16h48m43s'
p2390
aS'+05d06\'0"'
p2391
aS'1950.'
p2392
asS'3C454.3'
p2393
(lp2394
S'22h51m29.51s'
p2395
aS'+15d52\'54.3"'
p2396
aS'1950.'
p2397
asS'2213-254'
p2398
(lp2399
S'22h13m02.50s'
p2400
aS'-25d29\'30.1"'
p2401
aS'2000.'
p2402
asS'0022+061'
p2403
(lp2404
S'00h22m32.44s'
p2405
aS'+06d08\'04.3"'
p2406
aS'2000.'
p2407
asS'0115-014'
p2408
(lp2409
S'01h15m17.10s'
p2410
aS'-01d27\'04.6"'
p2411
aS'2000.'
p2412
asS'0231+133'
p2413
(lp2414
S'02h31m45.89s'
p2415
aS'+13d22\'54.7"'
p2416
aS'2000.'
p2417
asS'1712-281'
p2418
(lp2419
S'17h12m57.01s'
p2420
aS'-28d09\'33.1"'
p2421
aS'2000.'
p2422
asS'0937+501'
p2423
(lp2424
S'09h37m12.33s'
p2425
aS'+50d08\'52.1"'
p2426
aS'2000.'
p2427
asS'1139+657'
p2428
(lp2429
S'11h39m58.54s'
p2430
aS'+65d47\'46.5"'
p2431
aS'2000.'
p2432
asS'3C66'
p2433
(lp2434
S'02h22m50.00s'
p2435
aS'+42d58\'14.0"'
p2436
aS'1995.'
p2437
asS'1242-047'
p2438
(lp2439
S'12h42m19.53s'
p2440
aS'-04d46\'18.9"'
p2441
aS'2000.'
p2442
asS'2203+626'
p2443
(lp2444
S'22h03m20.96s'
p2445
aS'+62d40\'34.3"'
p2446
aS'2000.'
p2447
asS'2312+093'
p2448
(lp2449
S'23h12m28.12s'
p2450
aS'+09d19\'29.5"'
p2451
aS'2000.'
p2452
asS'1658+476'
p2453
(lp2454
S'16h58m02.78s'
p2455
aS'+47d37\'49.2"'
p2456
aS'2000.'
p2457
asS'1854+738'
p2458
(lp2459
S'18h54m57.30s'
p2460
aS'+73d51\'19.9"'
p2461
aS'2000.'
p2462
asS'2230-397'
p2463
(lp2464
S'22h30m40.28s'
p2465
aS'-39d42\'52.1"'
p2466
aS'2000.'
p2467
asS'1638+573'
p2468
(lp2469
S'16h38m13.46s'
p2470
aS'+57d20\'24.0"'
p2471
aS'2000.'
p2472
asS'1609+266'
p2473
(lp2474
S'16h09m13.32s'
p2475
aS'+26d41\'29.0"'
p2476
aS'2000.'
p2477
asS'1357+438'
p2478
(lp2479
S'13h57m40.68s'
p2480
aS'+43d53\'59.7"'
p2481
aS'2000.'
p2482
asS'0403-360'
p2483
(lp2484
S'04h03m53.75s'
p2485
aS'-36d05\'01.9"'
p2486
aS'2000.'
p2487
asS'0532+075'
p2488
(lp2489
S'05h32m39.00s'
p2490
aS'+07d32\'43.3"'
p2491
aS'2000.'
p2492
asS'0157-107'
p2493
(lp2494
S'01h57m41.53s'
p2495
aS'-10d43\'40.4"'
p2496
aS'2000.'
p2497
asS'1657+481'
p2498
(lp2499
S'16h57m46.88s'
p2500
aS'+48d08\'33.1"'
p2501
aS'2000.'
p2502
asS'2047-166'
p2503
(lp2504
S'20h47m19.66s'
p2505
aS'-16d39\'05.8"'
p2506
aS'2000.'
p2507
asS'1559+030'
p2508
(lp2509
S'15h59m30.97s'
p2510
aS'+03d04\'48.3"'
p2511
aS'2000.'
p2512
asS'0747+766'
p2513
(lp2514
S'07h47m14.62s'
p2515
aS'+76d39\'17.3"'
p2516
aS'2000.'
p2517
asS'1120+234'
p2518
(lp2519
S'11h20m42.91s'
p2520
aS'+23d27\'59.7"'
p2521
aS'2000.'
p2522
asS'0453-281'
p2523
(lp2524
S'04h53m14.65s'
p2525
aS'-28d07\'37.3"'
p2526
aS'2000.'
p2527
asS'1416+347'
p2528
(lp2529
S'14h16m04.19s'
p2530
aS'+34d44\'36.3"'
p2531
aS'2000.'
p2532
asS'0927-205'
p2533
(lp2534
S'09h27m51.82s'
p2535
aS'-20d34\'51.2"'
p2536
aS'2000.'
p2537
asS'0409+122'
p2538
(lp2539
S'04h09m22.01s'
p2540
aS'+12d17\'39.8"'
p2541
aS'2000.'
p2542
asS'0536-340'
p2543
(lp2544
S'05h36m28.44s'
p2545
aS'-34d01\'11.4"'
p2546
aS'2000.'
p2547
asS'0455-462'
p2548
(lp2549
S'04h55m51.11s'
p2550
aS'-46d16\'04.0"'
p2551
aS'2000.'
p2552
asS'0747-331'
p2553
(lp2554
S'07h47m19.69s'
p2555
aS'-33d10\'47.1"'
p2556
aS'2000.'
p2557
asS'0617-365'
p2558
(lp2559
S'06h17m32.32s'
p2560
aS'-36d34\'14.8"'
p2561
aS'2000.'
p2562
asS'0542+498'
p2563
(lp2564
S'05h42m36.14s'
p2565
aS'+49d51\'07.2"'
p2566
aS'2000.'
p2567
asS'1956-324'
p2568
(lp2569
S'19h56m59.49s'
p2570
aS'-32d25\'46.3"'
p2571
aS'2000.'
p2572
asS'0423+348'
p2573
(lp2574
S'04h23m57.12s'
p2575
aS'+34d51\'46.2"'
p2576
aS'2000.'
p2577
asS'0632+103'
p2578
(lp2579
S'06h32m15.33s'
p2580
aS'+10d22\'01.7"'
p2581
aS'2000.'
p2582
asS'0854+579'
p2583
(lp2584
S'08h54m42.00s'
p2585
aS'+57d57\'29.9"'
p2586
aS'2000.'
p2587
asS'1845+356'
p2588
(lp2589
S'18h45m35.10s'
p2590
aS'+35d41\'16.6"'
p2591
aS'2000.'
p2592
asS'2007+404'
p2593
(lp2594
S'20h07m44.94s'
p2595
aS'+40d29\'48.6"'
p2596
aS'2000.'
p2597
asS'0403+260'
p2598
(lp2599
S'04h03m05.59s'
p2600
aS'+26d00\'01.5"'
p2601
aS'2000.'
p2602
asS'0916+389'
p2603
(lp2604
S'09h16m48.90s'
p2605
aS'+38d54\'28.1"'
p2606
aS'2000.'
p2607
asS'3C390.3'
p2608
(lp2609
S'18h45m45.50s'
p2610
aS'+79d42\'45.0"'
p2611
aS'1950.'
p2612
asS'1804+010'
p2613
(lp2614
S'18h04m15.98s'
p2615
aS'+01d01\'31.9"'
p2616
aS'2000.'
p2617
asS'0406-384'
p2618
(lp2619
S'04h06m59.04s'
p2620
aS'-38d26\'28.0"'
p2621
aS'2000.'
p2622
asS'1033+395'
p2623
(lp2624
S'10h33m22.06s'
p2625
aS'+39d35\'51.1"'
p2626
aS'2000.'
p2627
asS'0806-268'
p2628
(lp2629
S'08h06m12.72s'
p2630
aS'-26d52\'33.2"'
p2631
aS'2000.'
p2632
asS'1316-336'
p2633
(lp2634
S'13h16m07.99s'
p2635
aS'-33d38\'59.2"'
p2636
aS'2000.'
p2637
asS'1448+760'
p2638
(lp2639
S'14h48m28.78s'
p2640
aS'+76d01\'11.6"'
p2641
aS'2000.'
p2642
asS'2035+109'
p2643
(lp2644
S'20h35m22.33s'
p2645
aS'+10d56\'06.6"'
p2646
aS'2000.'
p2647
asS'1435+302'
p2648
(lp2649
S'14h35m35.40s'
p2650
aS'+30d12\'24.5"'
p2651
aS'2000.'
p2652
asS'0437-187'
p2653
(lp2654
S'04h37m01.48s'
p2655
aS'-18d44\'48.6"'
p2656
aS'2000.'
p2657
asS'1352+314'
p2658
(lp2659
S'13h52m17.84s'
p2660
aS'+31d26\'46.7"'
p2661
aS'2000.'
p2662
asS'0410+769'
p2663
(lp2664
S'04h10m45.61s'
p2665
aS'+76d56\'45.3"'
p2666
aS'2000.'
p2667
asS'1658+347'
p2668
(lp2669
S'16h58m01.43s'
p2670
aS'+34d43\'28.4"'
p2671
aS'2000.'
p2672
asS'W44'
p2673
(lp2674
S'18h53m30.00s'
p2675
aS'+01d18\'00.0"'
p2676
aS'1950.0'
p2677
asS'1849+670'
p2678
(lp2679
S'18h49m16.07s'
p2680
aS'+67d05\'41.7"'
p2681
aS'2000.'
p2682
asS'0251+432'
p2683
(lp2684
S'02h51m34.54s'
p2685
aS'+43d15\'15.8"'
p2686
aS'2000.'
p2687
asS'1158+484'
p2688
(lp2689
S'11h58m26.77s'
p2690
aS'+48d25\'16.2"'
p2691
aS'2000.'
p2692
asS'0502+061'
p2693
(lp2694
S'05h02m15.45s'
p2695
aS'+06d09\'07.5"'
p2696
aS'2000.'
p2697
asS'2104+765'
p2698
(lp2699
S'21h04m08.94s'
p2700
aS'+76d33\'01.1"'
p2701
aS'2000.'
p2702
asS'1740+521'
p2703
(lp2704
S'17h40m36.98s'
p2705
aS'+52d11\'43.4"'
p2706
aS'2000.'
p2707
asS'0509+101'
p2708
(lp2709
S'05h09m27.46s'
p2710
aS'+10d11\'44.6"'
p2711
aS'2000.'
p2712
asS'0337+016'
p2713
(lp2714
S'03h37m17.11s'
p2715
aS'+01d37\'22.8"'
p2716
aS'2000.'
p2717
asS'1058+812'
p2718
(lp2719
S'10h58m11.54s'
p2720
aS'+81d14\'32.7"'
p2721
aS'2000.'
p2722
asS'2150+148'
p2723
(lp2724
S'21h50m23.60s'
p2725
aS'+14d49\'47.9"'
p2726
aS'2000.'
p2727
asS'1751+096'
p2728
(lp2729
S'17h51m32.82s'
p2730
aS'+09d39\'00.7"'
p2731
aS'2000.'
p2732
asS'3C279'
p2733
(lp2734
S'12h53m35.83s'
p2735
aS'-05d31\'07.9"'
p2736
aS'1950.'
p2737
asS'0521+166'
p2738
(lp2739
S'05h21m09.89s'
p2740
aS'+16d38\'22.1"'
p2741
aS'2000.'
p2742
asS'3C274'
p2743
(lp2744
S'12h28m17.57s'
p2745
aS'+12d40\'01.7"'
p2746
aS'1950.'
p2747
asS'3C275'
p2748
(lp2749
S'12h41m58.24s'
p2750
aS'-04d44\'02.3"'
p2751
aS'1993.'
p2752
asS'0440-435'
p2753
(lp2754
S'04h40m17.18s'
p2755
aS'-43d33\'08.6"'
p2756
aS'2000.'
p2757
asS'3C270'
p2758
(lp2759
S'12h16m50.80s'
p2760
aS'+06d06\'00.0"'
p2761
aS'1950.'
p2762
asS'0921-263'
p2763
(lp2764
S'09h21m29.35s'
p2765
aS'-26d18\'43.4"'
p2766
aS'2000.'
p2767
asS'0409-179'
p2768
(lp2769
S'04h09m06.70s'
p2770
aS'-17d57\'10.0"'
p2771
aS'2000.'
p2772
asS'1014+230'
p2773
(lp2774
S'10h14m47.07s'
p2775
aS'+23d01\'16.6"'
p2776
aS'2000.'
p2777
asS'1931+227'
p2778
(lp2779
S'19h31m24.92s'
p2780
aS'+22d43\'31.3"'
p2781
aS'2000.'
p2782
asS'1439-169'
p2783
(lp2784
S'14h39m28.67s'
p2785
aS'-16d59\'03.1"'
p2786
aS'2000.'
p2787
asS'1710+460'
p2788
(lp2789
S'17h10m44.05s'
p2790
aS'+46d01\'29.6"'
p2791
aS'2000.'
p2792
asS'0441-336'
p2793
(lp2794
S'04h41m33.78s'
p2795
aS'-33d40\'03.7"'
p2796
aS'2000.'
p2797
asS'0802+181'
p2798
(lp2799
S'08h02m48.02s'
p2800
aS'+18d09\'49.3"'
p2801
aS'2000.'
p2802
asS'0132+434'
p2803
(lp2804
S'01h32m44.13s'
p2805
aS'+43d25\'32.7"'
p2806
aS'2000.'
p2807
asS'0154+477'
p2808
(lp2809
S'01h54m56.29s'
p2810
aS'+47d43\'26.5"'
p2811
aS'2000.'
p2812
asS'0407-330'
p2813
(lp2814
S'04h07m33.92s'
p2815
aS'-33d03\'46.0"'
p2816
aS'2000.'
p2817
asS'0239+042'
p2818
(lp2819
S'02h39m51.26s'
p2820
aS'+04d16\'21.4"'
p2821
aS'2000.'
p2822
asS'1331+305'
p2823
(lp2824
S'13h31m08.29s'
p2825
aS'+30d30\'33.0"'
p2826
aS'2000.'
p2827
asS'1207+279'
p2828
(lp2829
S'12h07m27.90s'
p2830
aS'+27d54\'58.6"'
p2831
aS'2000.'
p2832
asS'2257+027'
p2833
(lp2834
S'22h57m17.56s'
p2835
aS'+02d43\'17.5"'
p2836
aS'2000.'
p2837
asS'0846-261'
p2838
(lp2839
S'08h46m00.74s'
p2840
aS'-26d10\'54.2"'
p2841
aS'2000.'
p2842
asS'2255+132'
p2843
(lp2844
S'22h55m03.73s'
p2845
aS'+13d13\'33.0"'
p2846
aS'2000.'
p2847
asS'1436+233'
p2848
(lp2849
S'14h36m40.98s'
p2850
aS'+23d21\'03.3"'
p2851
aS'2000.'
p2852
asS'0409+388'
p2853
(lp2854
S'04h09m22.40s'
p2855
aS'+38d48\'33.2"'
p2856
aS'2000.'
p2857
asS'0714+355'
p2858
(lp2859
S'07h14m24.82s'
p2860
aS'+35d34\'39.8"'
p2861
aS'2000.'
p2862
asS'0058-569'
p2863
(lp2864
S'00h58m46.58s'
p2865
aS'-56d59\'11.5"'
p2866
aS'2000.'
p2867
asS'0116-208'
p2868
(lp2869
S'01h16m51.40s'
p2870
aS'-20d52\'06.8"'
p2871
aS'2000.'
p2872
asS'0836-202'
p2873
(lp2874
S'08h36m39.22s'
p2875
aS'-20d16\'59.5"'
p2876
aS'2000.'
p2877
asS'0927+390'
p2878
(lp2879
S'09h27m03.01s'
p2880
aS'+39d02\'20.9"'
p2881
aS'2000.'
p2882
asS'0748+240'
p2883
(lp2884
S'07h48m36.11s'
p2885
aS'+24d00\'24.1"'
p2886
aS'2000.'
p2887
asS'0757+099'
p2888
(lp2889
S'07h57m06.64s'
p2890
aS'+09d56\'34.9"'
p2891
aS'2000.'
p2892
asS'0832+185'
p2893
(lp2894
S'08h32m16.04s'
p2895
aS'+18d32\'12.1"'
p2896
aS'2000.'
p2897
asS'0051-068'
p2898
(lp2899
S'00h51m08.20s'
p2900
aS'-06d50\'01.9"'
p2901
aS'2000.'
p2902
asS'0235-197'
p2903
(lp2904
S'02h37m25.0s'
p2905
aS'-19d34\'15"'
p2906
aS'1993.'
p2907
asS'1419+064'
p2908
(lp2909
S'14h19m08.18s'
p2910
aS'+06d28\'34.8"'
p2911
aS'2000.'
p2912
asS'2101-295'
p2913
(lp2914
S'21h01m01.65s'
p2915
aS'-29d33\'27.7"'
p2916
aS'2000.'
p2917
asS'2307-415'
p2918
(lp2919
S'23h07m54.34s'
p2920
aS'-41d32\'42.8"'
p2921
aS'2000.'
p2922
asS'0132-169'
p2923
(lp2924
S'01h32m43.49s'
p2925
aS'-16d54\'48.7"'
p2926
aS'2000.'
p2927
asS'1242+378'
p2928
(lp2929
S'12h42m51.37s'
p2930
aS'+37d51\'00.0"'
p2931
aS'2000.'
p2932
asS'0552+379'
p2933
(lp2934
S'05h52m17.94s'
p2935
aS'+37d54\'25.3"'
p2936
aS'2000.'
p2937
asS'0006-063'
p2938
(lp2939
S'00h06m13.89s'
p2940
aS'-06d23\'35.3"'
p2941
aS'2000.'
p2942
asS'1545+515'
p2943
(lp2944
S'15h45m02.82s'
p2945
aS'+51d35\'00.9"'
p2946
aS'2000.'
p2947
asS'0631-419'
p2948
(lp2949
S'06h31m12.00s'
p2950
aS'-41d54\'26.9"'
p2951
aS'2000.'
p2952
asS'0954+177'
p2953
(lp2954
S'09h54m56.82s'
p2955
aS'+17d43\'31.2"'
p2956
aS'2000.'
p2957
asS'0112+353'
p2958
(lp2959
S'01h12m12.94s'
p2960
aS'+35d22\'19.3"'
p2961
aS'2000.'
p2962
asS'1242+373'
p2963
(lp2964
S'12h42m09.81s'
p2965
aS'+37d20\'05.7"'
p2966
aS'2000.'
p2967
asS'0513-219'
p2968
(lp2969
S'05h13m49.11s'
p2970
aS'-21d59\'16.1"'
p2971
aS'2000.'
p2972
asS'1439-155'
p2973
(lp2974
S'14h39m56.88s'
p2975
aS'-15d31\'50.5"'
p2976
aS'2000.'
p2977
asS'1300+142'
p2978
(lp2979
S'13h00m20.92s'
p2980
aS'+14d17\'18.5"'
p2981
aS'2000.'
p2982
asS'1543-079'
p2983
(lp2984
S'15h43m01.70s'
p2985
aS'-07d57\'06.7"'
p2986
aS'2000.'
p2987
asS'2022+761'
p2988
(lp2989
S'20h22m35.58s'
p2990
aS'+76d11\'26.2"'
p2991
aS'2000.'
p2992
asS'0424-379'
p2993
(lp2994
S'04h24m42.24s'
p2995
aS'-37d56\'20.8"'
p2996
aS'2000.'
p2997
asS'0157+747'
p2998
(lp2999
S'01h57m34.96s'
p3000
aS'+74d42\'43.2"'
p3001
aS'2000.'
p3002
asS'1546+004'
p3003
(lp3004
S'15h46m09.53s'
p3005
aS'+00d26\'24.6"'
p3006
aS'2000.'
p3007
asS'1120+143'
p3008
(lp3009
S'11h20m27.81s'
p3010
aS'+14d20\'54.9"'
p3011
aS'2000.'
p3012
asS'0339-017'
p3013
(lp3014
S'03h39m30.94s'
p3015
aS'-01d46\'35.8"'
p3016
aS'2000.'
p3017
asS'0631+531'
p3018
(lp3019
S'06h31m34.69s'
p3020
aS'+53d11\'27.8"'
p3021
aS'2000.'
p3022
asS'0534+194'
p3023
(lp3024
S'05h34m44.52s'
p3025
aS'+19d27\'21.4"'
p3026
aS'2000.'
p3027
asS'0626+820'
p3028
(lp3029
S'06h26m03.01s'
p3030
aS'+82d02\'25.6"'
p3031
aS'2000.'
p3032
asS'1118+125'
p3033
(lp3034
S'11h18m57.30s'
p3035
aS'+12d34\'41.7"'
p3036
aS'2000.'
p3037
asS'1130+382'
p3038
(lp3039
S'11h30m53.28s'
p3040
aS'+38d15\'18.5"'
p3041
aS'2000.'
p3042
asS'1743-038'
p3043
(lp3044
S'17h43m58.86s'
p3045
aS'-03d50\'04.6"'
p3046
aS'2000.'
p3047
asS'1107+164'
p3048
(lp3049
S'11h07m15.31s'
p3050
aS'+16d28\'23.7"'
p3051
aS'2000.'
p3052
asS'1008+075'
p3053
(lp3054
S'10h08m00.02s'
p3055
aS'+07d30\'16.6"'
p3056
aS'2000.'
p3057
asS'0329+279'
p3058
(lp3059
S'03h29m57.67s'
p3060
aS'+27d56\'15.5"'
p3061
aS'2000.'
p3062
asS'1037-295'
p3063
(lp3064
S'10h37m16.08s'
p3065
aS'-29d34\'02.8"'
p3066
aS'2000.'
p3067
asS'0859-25'
p3068
(lp3069
S'08h59m36.4s'
p3070
aS'-25d43\'26.5"'
p3071
aS'1950.'
p3072
asS'2007+661'
p3073
(lp3074
S'20h07m28.77s'
p3075
aS'+66d07\'22.5"'
p3076
aS'2000.'
p3077
asS'1624+576'
p3078
(lp3079
S'16h24m24.81s'
p3080
aS'+57d41\'16.3"'
p3081
aS'2000.'
p3082
asS'0242-215'
p3083
(lp3084
S'02h42m35.91s'
p3085
aS'-21d32\'26.1"'
p3086
aS'2000.'
p3087
asS'0607+673'
p3088
(lp3089
S'06h07m52.67s'
p3090
aS'+67d20\'55.3"'
p3091
aS'2000.'
p3092
asS'PICA'
p3093
(lp3094
S'05h18m19.9s'
p3095
aS'-45d49\'31"'
p3096
aS'1950.'
p3097
asS'0017+815'
p3098
(lp3099
S'00h17m08.47s'
p3100
aS'+81d35\'08.1"'
p3101
aS'2000.'
p3102
asS'1339-263'
p3103
(lp3104
S'13h39m19.89s'
p3105
aS'-26d20\'30.5"'
p3106
aS'2000.'
p3107
asS'1246-257'
p3108
(lp3109
S'12h46m46.80s'
p3110
aS'-25d47\'49.3"'
p3111
aS'2000.'
p3112
asS'1147+350'
p3113
(lp3114
S'11h47m22.13s'
p3115
aS'+35d01\'07.5"'
p3116
aS'2000.'
p3117
asS'0735+331'
p3118
(lp3119
S'07h35m55.57s'
p3120
aS'+33d07\'09.4"'
p3121
aS'2000.'
p3122
asS'1517-243'
p3123
(lp3124
S'15h17m41.81s'
p3125
aS'-24d22\'19.5"'
p3126
aS'2000.'
p3127
asS'2331-381'
p3128
(lp3129
S'23h31m59.48s'
p3130
aS'-38d11\'47.6"'
p3131
aS'2000.'
p3132
asS'0416-188'
p3133
(lp3134
S'04h16m36.54s'
p3135
aS'-18d51\'08.3"'
p3136
aS'2000.'
p3137
asS'1150+242'
p3138
(lp3139
S'11h50m19.21s'
p3140
aS'+24d17\'53.8"'
p3141
aS'2000.'
p3142
asS'1516+195'
p3143
(lp3144
S'15h16m56.80s'
p3145
aS'+19d32\'13.0"'
p3146
aS'2000.'
p3147
asS'1246-41'
p3148
(lp3149
S'12h46m03.27s'
p3150
aS'-41d02\'21.4"'
p3151
aS'1950.'
p3152
asS'2314-316'
p3153
(lp3154
S'23h14m48.50s'
p3155
aS'-31d38\'39.5"'
p3156
aS'2000.'
p3157
asS'1520+202'
p3158
(lp3159
S'15h20m05.49s'
p3160
aS'+20d16\'05.6"'
p3161
aS'2000.'
p3162
asS'0655+410'
p3163
(lp3164
S'06h55m10.02s'
p3165
aS'+41d00\'10.1"'
p3166
aS'2000.'
p3167
asS'1545+478'
p3168
(lp3169
S'15h45m08.53s'
p3170
aS'+47d51\'54.7"'
p3171
aS'2000.'
p3172
asS'1419+543'
p3173
(lp3174
S'14h19m46.60s'
p3175
aS'+54d23\'14.8"'
p3176
aS'2000.'
p3177
asS'1128+594'
p3178
(lp3179
S'11h28m13.34s'
p3180
aS'+59d25\'14.8"'
p3181
aS'2000.'
p3182
asS'1310+323'
p3183
(lp3184
S'13h10m28.66s'
p3185
aS'+32d20\'43.8"'
p3186
aS'2000.'
p3187
asS'0019+734'
p3188
(lp3189
S'00h19m45.79s'
p3190
aS'+73d27\'30.0"'
p3191
aS'2000.'
p3192
asS'0150-074'
p3193
(lp3194
S'01h50m02.70s'
p3195
aS'-07d25\'48.5"'
p3196
aS'2000.'
p3197
asS'2325+437'
p3198
(lp3199
S'23h25m42.13s'
p3200
aS'+43d46\'58.2"'
p3201
aS'2000.'
p3202
asS'0105+483'
p3203
(lp3204
S'01h05m49.93s'
p3205
aS'+48d19\'03.1"'
p3206
aS'2000.'
p3207
asS'2114-350'
p3208
(lp3209
S'21h14m03.34s'
p3210
aS'-35d02\'35.6"'
p3211
aS'2000.'
p3212
asS'1352-442'
p3213
(lp3214
S'13h52m56.53s'
p3215
aS'-44d12\'40.4"'
p3216
aS'2000.'
p3217
asS'0638+595'
p3218
(lp3219
S'06h38m02.87s'
p3220
aS'+59d33\'22.2"'
p3221
aS'2000.'
p3222
asS'0639-337'
p3223
(lp3224
S'06h39m20.90s'
p3225
aS'-33d46\'00.1"'
p3226
aS'2000.'
p3227
asS'0426+579'
p3228
(lp3229
S'04h26m51.30s'
p3230
aS'+57d57\'56.4"'
p3231
aS'2000.'
p3232
asS'1955+515'
p3233
(lp3234
S'19h55m42.74s'
p3235
aS'+51d31\'48.5"'
p3236
aS'2000.'
p3237
asS'0010+109'
p3238
(lp3239
S'00h10m31.01s'
p3240
aS'+10d58\'29.5"'
p3241
aS'2000.'
p3242
asS'1248-199'
p3243
(lp3244
S'12h48m23.90s'
p3245
aS'-19d59\'18.7"'
p3246
aS'2000.'
p3247
asS'1007-021'
p3248
(lp3249
S'10h07m04.35s'
p3250
aS'-02d07\'10.9"'
p3251
aS'2000.'
p3252
asS'2346+095'
p3253
(lp3254
S'23h46m36.84s'
p3255
aS'+09d30\'45.5"'
p3256
aS'2000.'
p3257
asS'1709-174'
p3258
(lp3259
S'17h09m34.35s'
p3260
aS'-17d28\'53.4"'
p3261
aS'2000.'
p3262
asS'2357-114'
p3263
(lp3264
S'23h57m31.21s'
p3265
aS'-11d25\'39.3"'
p3266
aS'2000.'
p3267
asS'1131-050'
p3268
(lp3269
S'11h31m30.52s'
p3270
aS'-05d00\'19.7"'
p3271
aS'2000.'
p3272
asS'2148+611'
p3273
(lp3274
S'21h48m16.05s'
p3275
aS'+61d07\'05.8"'
p3276
aS'2000.'
p3277
asS'1104+382'
p3278
(lp3279
S'11h04m27.32s'
p3280
aS'+38d12\'31.6"'
p3281
aS'2000.'
p3282
asS'2316+040'
p3283
(lp3284
S'23h16m35.21s'
p3285
aS'+04d05\'18.1"'
p3286
aS'2000.'
p3287
asS'0013+408'
p3288
(lp3289
S'00h13m31.13s'
p3290
aS'+40d51\'37.1"'
p3291
aS'2000.'
p3292
asS'0520+454'
p3293
(lp3294
S'05h20m47.52s'
p3295
aS'+45d28\'35.0"'
p3296
aS'2000.'
p3297
asS'0902-142'
p3298
(lp3299
S'09h02m16.83s'
p3300
aS'-14d15\'30.9"'
p3301
aS'2000.'
p3302
asS'0814+459'
p3303
(lp3304
S'08h14m30.31s'
p3305
aS'+45d56\'39.5"'
p3306
aS'2000.'
p3307
asS'1349+536'
p3308
(lp3309
S'13h49m34.66s'
p3310
aS'+53d41\'17.0"'
p3311
aS'2000.'
p3312
asS'2047-026'
p3313
(lp3314
S'20h47m10.35s'
p3315
aS'-02d36\'22.2"'
p3316
aS'2000.'
p3317
asS'1033+412'
p3318
(lp3319
S'10h33m03.71s'
p3320
aS'+41d16\'06.2"'
p3321
aS'2000.'
p3322
asS'0102+584'
p3323
(lp3324
S'01h02m45.76s'
p3325
aS'+58d24\'11.1"'
p3326
aS'2000.'
p3327
asS'2015+659'
p3328
(lp3329
S'20h15m55.37s'
p3330
aS'+65d54\'52.7"'
p3331
aS'2000.'
p3332
asS'1727+455'
p3333
(lp3334
S'17h27m27.65s'
p3335
aS'+45d30\'39.7"'
p3336
aS'2000.'
p3337
asS'0049-576'
p3338
(lp3339
S'00h49m59.47s'
p3340
aS'-57d38\'27.3"'
p3341
aS'2000.'
p3342
asS'0151+277'
p3343
(lp3344
S'01h51m27.15s'
p3345
aS'+27d44\'41.8"'
p3346
aS'2000.'
p3347
asS'1637+472'
p3348
(lp3349
S'16h37m45.13s'
p3350
aS'+47d17\'33.8"'
p3351
aS'2000.'
p3352
asS'0010-418'
p3353
(lp3354
S'00h10m52.52s'
p3355
aS'-41d53\'10.8"'
p3356
aS'2000.'
p3357
asS'1244+408'
p3358
(lp3359
S'12h44m49.20s'
p3360
aS'+40d48\'06.2"'
p3361
aS'2000.'
p3362
asS'2025+337'
p3363
(lp3364
S'20h25m10.84s'
p3365
aS'+33d43\'00.2"'
p3366
aS'2000.'
p3367
asS'2038+513'
p3368
(lp3369
S'20h38m37.03s'
p3370
aS'+51d19\'12.7"'
p3371
aS'2000.'
p3372
asS'1653+397'
p3373
(lp3374
S'16h53m52.22s'
p3375
aS'+39d45\'36.6"'
p3376
aS'2000.'
p3377
asS'1925+211'
p3378
(lp3379
S'19h25m59.61s'
p3380
aS'+21d06\'26.2"'
p3381
aS'2000.'
p3382
asS'3C237'
p3383
(lp3384
S'10h05m22.02s'
p3385
aS'+07d44\'58.6"'
p3386
aS'1950.'
p3387
asS'1430+107'
p3388
(lp3389
S'14h30m09.74s'
p3390
aS'+10d43\'26.8"'
p3391
aS'2000.'
p3392
asS'1337-129'
p3393
(lp3394
S'13h37m39.78s'
p3395
aS'-12d57\'24.7"'
p3396
aS'2000.'
p3397
asS'2214-385'
p3398
(lp3399
S'22h14m38.57s'
p3400
aS'-38d35\'45.0"'
p3401
aS'2000.'
p3402
asS'2330+110'
p3403
(lp3404
S'23h30m40.85s'
p3405
aS'+11d00\'18.7"'
p3406
aS'2000.'
p3407
asS'1945+709'
p3408
(lp3409
S'19h45m53.52s'
p3410
aS'+70d55\'48.7"'
p3411
aS'2000.'
p3412
asS'1256-057'
p3413
(lp3414
S'12h56m11.17s'
p3415
aS'-05d47\'21.5"'
p3416
aS'2000.'
p3417
asS'1824+107'
p3418
(lp3419
S'18h24m02.86s'
p3420
aS'+10d44\'23.8"'
p3421
aS'2000.'
p3422
asS'1745+173'
p3423
(lp3424
S'17h45m35.21s'
p3425
aS'+17d20\'01.4"'
p3426
aS'2000.'
p3427
asS'0804-278'
p3428
(lp3429
S'08h04m51.44s'
p3430
aS'-27d49\'11.3"'
p3431
aS'2000.'
p3432
asS'0831+044'
p3433
(lp3434
S'08h31m48.88s'
p3435
aS'+04d29\'39.1"'
p3436
aS'2000.'
p3437
asS'0230+405'
p3438
(lp3439
S'02h30m45.71s'
p3440
aS'+40d32\'53.1"'
p3441
aS'2000.'
p3442
asS'1146+399'
p3443
(lp3444
S'11h46m58.30s'
p3445
aS'+39d58\'34.3"'
p3446
aS'2000.'
p3447
asS'0426+053'
p3448
(lp3449
S'04h26m36.60s'
p3450
aS'+05d18\'19.9"'
p3451
aS'2000.'
p3452
asS'1111+199'
p3453
(lp3454
S'11h11m20.07s'
p3455
aS'+19d55\'36.0"'
p3456
aS'2000.'
p3457
asS'2212+018'
p3458
(lp3459
S'22h12m37.98s'
p3460
aS'+01d52\'51.2"'
p3461
aS'2000.'
p3462
asS'2142-046'
p3463
(lp3464
S'21h42m36.90s'
p3465
aS'-04d37\'43.6"'
p3466
aS'2000.'
p3467
asS'1148+529'
p3468
(lp3469
S'11h48m56.57s'
p3470
aS'+52d54\'25.3"'
p3471
aS'2000.'
p3472
asS'0455-205'
p3473
(lp3474
S'04h55m23.66s'
p3475
aS'-20d34\'14.5"'
p3476
aS'2000.'
p3477
asS'0820-129'
p3478
(lp3479
S'08h20m57.45s'
p3480
aS'-12d58\'59.2"'
p3481
aS'2000.'
p3482
asS'1326+319'
p3483
(lp3484
S'13h26m16.51s'
p3485
aS'+31d54\'09.5"'
p3486
aS'2000.'
p3487
asS'1342+603'
p3488
(lp3489
S'13h42m13.02s'
p3490
aS'+60d21\'42.5"'
p3491
aS'2000.'
p3492
asS'0948+406'
p3493
(lp3494
S'09h48m55.34s'
p3495
aS'+40d39\'44.6"'
p3496
aS'2000.'
p3497
asS'0726+791'
p3498
(lp3499
S'07h26m11.74s'
p3500
aS'+79d11\'31.0"'
p3501
aS'2000.'
p3502
asS'0825+619'
p3503
(lp3504
S'08h25m38.61s'
p3505
aS'+61d57\'28.6"'
p3506
aS'2000.'
p3507
asS'0644+392'
p3508
(lp3509
S'06h44m53.71s'
p3510
aS'+39d14\'47.5"'
p3511
aS'2000.'
p3512
asS'0828-375'
p3513
(lp3514
S'08h28m04.78s'
p3515
aS'-37d31\'06.3"'
p3516
aS'2000.'
p3517
asS'1103-328'
p3518
(lp3519
S'11h03m31.53s'
p3520
aS'-32d51\'16.7"'
p3521
aS'2000.'
p3522
asS'0815-031'
p3523
(lp3524
S'08h15m27.83s'
p3525
aS'-03d08\'26.8"'
p3526
aS'2000.'
p3527
asS'0847+573'
p3528
(lp3529
S'08h47m28.06s'
p3530
aS'+57d23\'38.3"'
p3531
aS'2000.'
p3532
asS'2253+161'
p3533
(lp3534
S'22h53m57.75s'
p3535
aS'+16d08\'53.6"'
p3536
aS'2000.'
p3537
asS'2101+036'
p3538
(lp3539
S'21h01m38.83s'
p3540
aS'+03d41\'31.3"'
p3541
aS'2000.'
p3542
asS'1728+122'
p3543
(lp3544
S'17h28m07.05s'
p3545
aS'+12d15\'39.5"'
p3546
aS'2000.'
p3547
asS'1120-251'
p3548
(lp3549
S'11h20m09.12s'
p3550
aS'-25d08\'07.6"'
p3551
aS'2000.'
p3552
asS'0730+407'
p3553
(lp3554
S'07h30m51.35s'
p3555
aS'+40d49\'50.8"'
p3556
aS'2000.'
p3557
asS'1634+627'
p3558
(lp3559
S'16h34m33.80s'
p3560
aS'+62d45\'35.9"'
p3561
aS'2000.'
p3562
asS'2320+052'
p3563
(lp3564
S'23h20m44.86s'
p3565
aS'+05d13\'50.0"'
p3566
aS'2000.'
p3567
asS'0349+461'
p3568
(lp3569
S'03h49m18.74s'
p3570
aS'+46d09\'59.7"'
p3571
aS'2000.'
p3572
asS'2156+485'
p3573
(lp3574
S'21h56m37.91s'
p3575
aS'+48d30\'27.6"'
p3576
aS'2000.'
p3577
asS'2003+664'
p3578
(lp3579
S'20h03m54.51s'
p3580
aS'+66d25\'56.4"'
p3581
aS'2000.'
p3582
asS'1215+348'
p3583
(lp3584
S'12h15m55.60s'
p3585
aS'+34d48\'15.2"'
p3586
aS'2000.'
p3587
asS'0929+502'
p3588
(lp3589
S'09h29m15.44s'
p3590
aS'+50d13\'36.0"'
p3591
aS'2000.'
p3592
asS'0217+738'
p3593
(lp3594
S'02h17m30.81s'
p3595
aS'+73d49\'32.6"'
p3596
aS'2000.'
p3597
asS'1404-015'
p3598
(lp3599
S'14h04m45.90s'
p3600
aS'-01d30\'21.9"'
p3601
aS'2000.'
p3602
asS'2055+613'
p3603
(lp3604
S'20h55m38.84s'
p3605
aS'+61d22\'00.6"'
p3606
aS'2000.'
p3607
asS'2152+175'
p3608
(lp3609
S'21h52m24.82s'
p3610
aS'+17d34\'37.8"'
p3611
aS'2000.'
p3612
asS'0943-083'
p3613
(lp3614
S'09h43m36.95s'
p3615
aS'-08d19\'30.9"'
p3616
aS'2000.'
p3617
asS'0730-116'
p3618
(lp3619
S'07h30m19.11s'
p3620
aS'-11d41\'12.6"'
p3621
aS'2000.'
p3622
asS'0038-213'
p3623
(lp3624
S'00h38m29.95s'
p3625
aS'-21d20\'04.0"'
p3626
aS'2000.'
p3627
asS'3C244'
p3628
(lp3629
S'10h30m19.00s'
p3630
aS'+58d30\'12.0"'
p3631
aS'1950.'
p3632
asS'1302+578'
p3633
(lp3634
S'13h02m52.47s'
p3635
aS'+57d48\'37.6"'
p3636
aS'2000.'
p3637
asS'1340+379'
p3638
(lp3639
S'13h40m22.95s'
p3640
aS'+37d54\'43.8"'
p3641
aS'2000.'
p3642
asS'0830+241'
p3643
(lp3644
S'08h30m52.09s'
p3645
aS'+24d10\'59.8"'
p3646
aS'2000.'
p3647
asS'1239+075'
p3648
(lp3649
S'12h39m24.59s'
p3650
aS'+07d30\'17.2"'
p3651
aS'2000.'
p3652
asS'1505+034'
p3653
(lp3654
S'15h05m06.48s'
p3655
aS'+03d26\'30.8"'
p3656
aS'2000.'
p3657
asS'1719+177'
p3658
(lp3659
S'17h19m13.05s'
p3660
aS'+17d45\'06.4"'
p3661
aS'2000.'
p3662
asS'0527+035'
p3663
(lp3664
S'05h27m32.70s'
p3665
aS'+03d31\'31.5"'
p3666
aS'2000.'
p3667
asS'2255-087'
p3668
(lp3669
S'22h55m04.24s'
p3670
aS'-08d44\'04.0"'
p3671
aS'2000.'
p3672
asS'0120-270'
p3673
(lp3674
S'01h20m31.66s'
p3675
aS'-27d01\'24.7"'
p3676
aS'2000.'
p3677
asS'0014+612'
p3678
(lp3679
S'00h14m48.82s'
p3680
aS'+61d17\'43.9"'
p3681
aS'2000.'
p3682
asS'0604+203'
p3683
(lp3684
S'06h04m28.67s'
p3685
aS'+20d21\'22.2"'
p3686
aS'2000.'
p3687
asS'0116-116'
p3688
(lp3689
S'01h16m12.52s'
p3690
aS'-11d36\'15.4"'
p3691
aS'2000.'
p3692
asS'0354+801'
p3693
(lp3694
S'03h54m46.13s'
p3695
aS'+80d09\'28.8"'
p3696
aS'2000.'
p3697
asS'1153+495'
p3698
(lp3699
S'11h53m24.47s'
p3700
aS'+49d31\'08.8"'
p3701
aS'2000.'
p3702
asS'0439-453'
p3703
(lp3704
S'04h39m00.85s'
p3705
aS'-45d22\'22.6"'
p3706
aS'2000.'
p3707
asS'1814+412'
p3708
(lp3709
S'18h14m22.71s'
p3710
aS'+41d13\'05.6"'
p3711
aS'2000.'
p3712
asS'0811+017'
p3713
(lp3714
S'08h11m26.71s'
p3715
aS'+01d46\'52.2"'
p3716
aS'2000.'
p3717
asS'1808+457'
p3718
(lp3719
S'18h08m21.89s'
p3720
aS'+45d42\'20.9"'
p3721
aS'2000.'
p3722
asS'1432-180'
p3723
(lp3724
S'14h32m57.69s'
p3725
aS'-18d01\'35.2"'
p3726
aS'2000.'
p3727
asS'0555+398'
p3728
(lp3729
S'05h55m30.81s'
p3730
aS'+39d48\'49.2"'
p3731
aS'2000.'
p3732
asS'0751+332'
p3733
(lp3734
S'07h51m53.67s'
p3735
aS'+33d13\'19.8"'
p3736
aS'2000.'
p3737
asS'0120-153'
p3738
(lp3739
S'01h20m27.20s'
p3740
aS'-15d20\'16.6"'
p3741
aS'2000.'
p3742
asS'0201-115'
p3743
(lp3744
S'02h01m57.16s'
p3745
aS'-11d32\'33.1"'
p3746
aS'2000.'
p3747
asS'0113+498'
p3748
(lp3749
S'01h13m27.01s'
p3750
aS'+49d48\'24.0"'
p3751
aS'2000.'
p3752
asS'CASA'
p3753
(lp3754
S'23h21m11.0s'
p3755
aS'+58d33\'00.0"'
p3756
aS'1950.'
p3757
asS'1822-131'
p3758
(lp3759
S'18h22m10.90s'
p3760
aS'-13d09\'44.2"'
p3761
aS'2000.'
p3762
asS'0429-344'
p3763
(lp3764
S'04h29m47.22s'
p3765
aS'-34d26\'41.8"'
p3766
aS'2000.'
p3767
asS'1152+496'
p3768
(lp3769
S'11h52m32.87s'
p3770
aS'+49d39\'38.8"'
p3771
aS'2000.'
p3772
asS'0833+424'
p3773
(lp3774
S'08h33m53.88s'
p3775
aS'+42d24\'01.8"'
p3776
aS'2000.'
p3777
asS'0956+252'
p3778
(lp3779
S'09h56m49.88s'
p3780
aS'+25d15\'16.0"'
p3781
aS'2000.'
p3782
asS'2218-035'
p3783
(lp3784
S'22h18m52.04s'
p3785
aS'-03d35\'36.9"'
p3786
aS'2000.'
p3787
asS'0443+346'
p3788
(lp3789
S'04h43m31.64s'
p3790
aS'+34d41\'06.7"'
p3791
aS'2000.'
p3792
asS'1056+701'
p3793
(lp3794
S'10h56m53.62s'
p3795
aS'+70d11\'45.9"'
p3796
aS'2000.'
p3797
asS'1801+440'
p3798
(lp3799
S'18h01m32.31s'
p3800
aS'+44d04\'21.9"'
p3801
aS'2000.'
p3802
asS'1023+398'
p3803
(lp3804
S'10h23m11.57s'
p3805
aS'+39d48\'15.4"'
p3806
aS'2000.'
p3807
asS'0438+488'
p3808
(lp3809
S'04h38m59.11s'
p3810
aS'+48d48\'46.6"'
p3811
aS'2000.'
p3812
asS'0344+159'
p3813
(lp3814
S'03h44m23.17s'
p3815
aS'+15d59\'43.4"'
p3816
aS'2000.'
p3817
asS'2236+733'
p3818
(lp3819
S'22h36m38.60s'
p3820
aS'+73d22\'52.7"'
p3821
aS'2000.'
p3822
asS'1229+020'
p3823
(lp3824
S'12h29m06.70s'
p3825
aS'+02d03\'08.6"'
p3826
aS'2000.'
p3827
asS'2258-279'
p3828
(lp3829
S'22h58m05.96s'
p3830
aS'-27d58\'21.3"'
p3831
aS'2000.'
p3832
asS'1309+119'
p3833
(lp3834
S'13h09m33.93s'
p3835
aS'+11d54\'24.6"'
p3836
aS'2000.'
p3837
asS'0329-239'
p3838
(lp3839
S'03h29m54.07s'
p3840
aS'-23d57\'08.6"'
p3841
aS'2000.'
p3842
asS'1443+635'
p3843
(lp3844
S'14h43m58.60s'
p3845
aS'+63d32\'26.4"'
p3846
aS'2000.'
p3847
asS'1252+565'
p3848
(lp3849
S'12h52m26.39s'
p3850
aS'+56d34\'19.4"'
p3851
aS'2000.'
p3852
asS'0818+423'
p3853
(lp3854
S'08h18m16.00s'
p3855
aS'+42d22\'45.4"'
p3856
aS'2000.'
p3857
asS'3C380'
p3858
(lp3859
S'18h28m13.46s'
p3860
aS'+48d42\'41.0"'
p3861
aS'1950.'
p3862
asS'0059+001'
p3863
(lp3864
S'00h59m05.51s'
p3865
aS'+00d06\'51.6"'
p3866
aS'2000.'
p3867
asS'1221+282'
p3868
(lp3869
S'12h21m31.69s'
p3870
aS'+28d13\'58.5"'
p3871
aS'2000.'
p3872
asS'0921+622'
p3873
(lp3874
S'09h21m36.23s'
p3875
aS'+62d15\'52.2"'
p3876
aS'2000.'
p3877
asS'2322+509'
p3878
(lp3879
S'23h22m25.98s'
p3880
aS'+50d57\'52.0"'
p3881
aS'2000.'
p3882
asS'ERER'
p3883
(lp3884
S'09h31m04.74s'
p3885
aS'+28d19\'32.9"'
p3886
aS'2000.'
p3887
asS'1603+575'
p3888
(lp3889
S'16h03m55.93s'
p3890
aS'+57d30\'54.4"'
p3891
aS'2000.'
p3892
asS'0541+474'
p3893
(lp3894
S'05h41m49.19s'
p3895
aS'+47d29\'07.6"'
p3896
aS'2000.'
p3897
asS'2345+659'
p3898
(lp3899
S'23h45m34.02s'
p3900
aS'+65d57\'18.4"'
p3901
aS'2000.'
p3902
asS'0313+413'
p3903
(lp3904
S'03h13m01.96s'
p3905
aS'+41d20\'01.2"'
p3906
aS'2000.'
p3907
asS'HYDRA'
p3908
(lp3909
S'09h15m43s'
p3910
aS'-11d52\'00"'
p3911
aS'1950.'
p3912
asS'3C147'
p3913
(lp3914
S'05h38m43.50s'
p3915
aS'+49d49\'42.7"'
p3916
aS'1950.'
p3917
asS'1535+499'
p3918
(lp3919
S'15h35m52.04s'
p3920
aS'+49d57\'39.1"'
p3921
aS'2000.'
p3922
asS'2219-279'
p3923
(lp3924
S'22h19m40.94s'
p3925
aS'-27d56\'26.9"'
p3926
aS'2000.'
p3927
asS'1010+828'
p3928
(lp3929
S'10h10m15.87s'
p3930
aS'+82d50\'14.5"'
p3931
aS'2000.'
p3932
asS'1159-218'
p3933
(lp3934
S'11h59m51.91s'
p3935
aS'-21d48\'53.8"'
p3936
aS'2000.'
p3937
asS'2140+391'
p3938
(lp3939
S'21h40m16.95s'
p3940
aS'+39d11\'44.9"'
p3941
aS'2000.'
p3942
asS'2138-246'
p3943
(lp3944
S'21h38m37.18s'
p3945
aS'-24d39\'54.6"'
p3946
aS'2000.'
p3947
asS'1737+063'
p3948
(lp3949
S'17h37m13.73s'
p3950
aS'+06d21\'03.5"'
p3951
aS'2000.'
p3952
asS'1957+336'
p3953
(lp3954
S'19h57m40.55s'
p3955
aS'+33d38\'27.9"'
p3956
aS'2000.'
p3957
asS'1924+156'
p3958
(lp3959
S'19h24m39.45s'
p3960
aS'+15d40\'43.9"'
p3961
aS'2000.'
p3962
asS'2131-121'
p3963
(lp3964
S'21h31m35.26s'
p3965
aS'-12d07\'04.8"'
p3966
aS'2000.'
p3967
asS'1850+284'
p3968
(lp3969
S'18h50m27.59s'
p3970
aS'+28d25\'13.1"'
p3971
aS'2000.'
p3972
asS'0427+049'
p3973
(lp3974
S'04h27m47.57s'
p3975
aS'+04d57\'08.3"'
p3976
aS'2000.'
p3977
asS'1759+237'
p3978
(lp3979
S'17h59m00.35s'
p3980
aS'+23d43\'47.0"'
p3981
aS'2000.'
p3982
asS'1158+248'
p3983
(lp3984
S'11h58m25.79s'
p3985
aS'+24d50\'18.0"'
p3986
aS'2000.'
p3987
asS'0934+491'
p3988
(lp3989
S'09h34m15.76s'
p3990
aS'+49d08\'21.7"'
p3991
aS'2000.'
p3992
asS'1625-254'
p3993
(lp3994
S'16h25m46.89s'
p3995
aS'-25d27\'38.3"'
p3996
aS'2000.'
p3997
asS'0405+380'
p3998
(lp3999
S'04h05m49.26s'
p4000
aS'+38d03\'32.2"'
p4001
aS'2000.'
p4002
asS'0145-275'
p4003
(lp4004
S'01h45m03.40s'
p4005
aS'-27d33\'34.3"'
p4006
aS'2000.'
p4007
asS'0559+580'
p4008
(lp4009
S'05h59m13.39s'
p4010
aS'+58d04\'03.4"'
p4011
aS'2000.'
p4012
asS'0042+233'
p4013
(lp4014
S'00h42m04.55s'
p4015
aS'+23d20\'01.1"'
p4016
aS'2000.'
p4017
asS'2052+365'
p4018
(lp4019
S'20h52m52.05s'
p4020
aS'+36d35\'35.3"'
p4021
aS'2000.'
p4022
asS'1554-270'
p4023
(lp4024
S'15h54m02.49s'
p4025
aS'-27d04\'40.2"'
p4026
aS'2000.'
p4027
asS'1734+094'
p4028
(lp4029
S'17h34m58.38s'
p4030
aS'+09d26\'58.3"'
p4031
aS'2000.'
p4032
asS'1107-448'
p4033
(lp4034
S'11h07m08.69s'
p4035
aS'-44d49\'07.6"'
p4036
aS'2000.'
p4037
asS'0738+177'
p4038
(lp4039
S'07h38m07.39s'
p4040
aS'+17d42\'19.0"'
p4041
aS'2000.'
p4042
asS'1953+356'
p4043
(lp4044
S'19h53m30.88s'
p4045
aS'+35d37\'59.4"'
p4046
aS'2000.'
p4047
asS'0010+174'
p4048
(lp4049
S'00h10m33.99s'
p4050
aS'+17d24\'18.8"'
p4051
aS'2000.'
p4052
asS'1602+334'
p4053
(lp4054
S'16h02m07.26s'
p4055
aS'+33d26\'53.1"'
p4056
aS'2000.'
p4057
asS'1215-175'
p4058
(lp4059
S'12h15m46.75s'
p4060
aS'-17d31\'45.4"'
p4061
aS'2000.'
p4062
asS'0203+725'
p4063
(lp4064
S'02h03m33.38s'
p4065
aS'+72d32\'53.7"'
p4066
aS'2000.'
p4067
asS'2133+826'
p4068
(lp4069
S'21h33m34.10s'
p4070
aS'+82d39\'06.0"'
p4071
aS'2000.'
p4072
asS'1033+608'
p4073
(lp4074
S'10h33m51.43s'
p4075
aS'+60d51\'07.3"'
p4076
aS'2000.'
p4077
asS'0610+728'
p4078
(lp4079
S'06h10m48.87s'
p4080
aS'+72d48\'53.2"'
p4081
aS'2000.'
p4082
asS'1932-46'
p4083
(lp4084
S'19h32m18.9s'
p4085
aS'-46d27\'23.9"'
p4086
aS'1950.'
p4087
asS'3C465'
p4088
(lp4089
S'23h35m55.70s'
p4090
aS'+26d44\'37.0"'
p4091
aS'1950.'
p4092
asS'1209+436'
p4093
(lp4094
S'12h09m13.43s'
p4095
aS'+43d39\'17.6"'
p4096
aS'2000.'
p4097
asS'1928+088'
p4098
(lp4099
S'19h28m40.86s'
p4100
aS'+08d48\'48.4"'
p4101
aS'2000.'
p4102
asS'0505+049'
p4103
(lp4104
S'05h05m23.18s'
p4105
aS'+04d59\'42.7"'
p4106
aS'2000.'
p4107
asS'1337+550'
p4108
(lp4109
S'13h37m49.64s'
p4110
aS'+55d01\'02.1"'
p4111
aS'2000.'
p4112
asS'1222+042'
p4113
(lp4114
S'12h22m22.55s'
p4115
aS'+04d13\'15.8"'
p4116
aS'2000.'
p4117
asS'2325-121'
p4118
(lp4119
S'23h25m19.77s'
p4120
aS'-12d07\'27.1"'
p4121
aS'2000.'
p4122
asS'1102+279'
p4123
(lp4124
S'11h02m14.29s'
p4125
aS'+27d57\'08.5"'
p4126
aS'2000.'
p4127
asS'1044+533'
p4128
(lp4129
S'10h44m10.67s'
p4130
aS'+53d22\'20.5"'
p4131
aS'2000.'
p4132
asS'0254+395'
p4133
(lp4134
S'02h54m42.63s'
p4135
aS'+39d31\'34.7"'
p4136
aS'2000.'
p4137
asS'0854+201'
p4138
(lp4139
S'08h54m48.87s'
p4140
aS'+20d06\'30.6"'
p4141
aS'2000.'
p4142
asS'1434+198'
p4143
(lp4144
S'14h34m39.79s'
p4145
aS'+19d52\'00.7"'
p4146
aS'2000.'
p4147
asS'0607-085'
p4148
(lp4149
S'06h07m59.70s'
p4150
aS'-08d34\'50.0"'
p4151
aS'2000.'
p4152
asS'1939-100'
p4153
(lp4154
S'19h39m57.26s'
p4155
aS'-10d02\'41.5"'
p4156
aS'2000.'
p4157
asS'0345+148'
p4158
(lp4159
S'03h45m06.42s'
p4160
aS'+14d53\'49.6"'
p4161
aS'2000.'
p4162
asS'0203+115'
p4163
(lp4164
S'02h03m46.66s'
p4165
aS'+11d34\'45.4"'
p4166
aS'2000.'
p4167
asS'1640+123'
p4168
(lp4169
S'16h40m47.93s'
p4170
aS'+12d20\'02.1"'
p4171
aS'2000.'
p4172
asS'2148+069'
p4173
(lp4174
S'21h48m05.46s'
p4175
aS'+06d57\'38.6"'
p4176
aS'2000.'
p4177
asS'0224+069'
p4178
(lp4179
S'02h24m28.43s'
p4180
aS'+06d59\'23.3"'
p4181
aS'2000.'
p4182
asS'1419+383'
p4183
(lp4184
S'14h19m46.61s'
p4185
aS'+38d21\'48.5"'
p4186
aS'2000.'
p4187
asS'0814-356'
p4188
(lp4189
S'08h14m14.65s'
p4190
aS'-35d38\'25.6"'
p4191
aS'2000.'
p4192
asS'0237+288'
p4193
(lp4194
S'02h37m52.41s'
p4195
aS'+28d48\'09.0"'
p4196
aS'2000.'
p4197
asS'1408-078'
p4198
(lp4199
S'14h08m56.48s'
p4200
aS'-07d52\'26.7"'
p4201
aS'2000.'
p4202
asS'0801+142'
p4203
(lp4204
S'08h01m33.50s'
p4205
aS'+14d14\'42.4"'
p4206
aS'2000.'
p4207
asS'1405+042'
p4208
(lp4209
S'14h05m01.12s'
p4210
aS'+04d15\'35.8"'
p4211
aS'2000.'
p4212
asS'0650+600'
p4213
(lp4214
S'06h50m31.25s'
p4215
aS'+60d01\'44.6"'
p4216
aS'2000.'
p4217
asS'1626-298'
p4218
(lp4219
S'16h26m06.02s'
p4220
aS'-29d51\'27.0"'
p4221
aS'2000.'
p4222
asS'1937-399'
p4223
(lp4224
S'19h37m16.22s'
p4225
aS'-39d58\'01.6"'
p4226
aS'2000.'
p4227
asS'1538+003'
p4228
(lp4229
S'15h38m15.96s'
p4230
aS'+00d19\'05.3"'
p4231
aS'2000.'
p4232
asS'0853-207'
p4233
(lp4234
S'08h53m00.27s'
p4235
aS'-20d47\'28.1"'
p4236
aS'2000.'
p4237
asS'0642+679'
p4238
(lp4239
S'06h42m04.26s'
p4240
aS'+67d58\'35.6"'
p4241
aS'2000.'
p4242
asS'B1442+101'
p4243
(lp4244
S'14h42m50.48s'
p4245
aS'+10d11\'11.9"'
p4246
aS'1950.'
p4247
asS'1148+594'
p4248
(lp4249
S'11h48m50.36s'
p4250
aS'+59d24\'56.4"'
p4251
aS'2000.'
p4252
asS'1357+767'
p4253
(lp4254
S'13h57m55.37s'
p4255
aS'+76d43\'21.1"'
p4256
aS'2000.'
p4257
asS'1513+236'
p4258
(lp4259
S'15h13m40.19s'
p4260
aS'+23d38\'35.2"'
p4261
aS'2000.'
p4262
asS'1842+797'
p4263
(lp4264
S'18h42m08.99s'
p4265
aS'+79d46\'17.1"'
p4266
aS'2000.'
p4267
asS'0522+012'
p4268
(lp4269
S'05h22m17.47s'
p4270
aS'+01d13\'31.1"'
p4271
aS'2000.'
p4272
asS'1629+679'
p4273
(lp4274
S'16h29m51.84s'
p4275
aS'+67d57\'14.9"'
p4276
aS'2000.'
p4277
asS'2217+023'
p4278
(lp4279
S'22h17m48.24s'
p4280
aS'+02d20\'10.7"'
p4281
aS'2000.'
p4282
asS'0134-095'
p4283
(lp4284
S'01h34m35.67s'
p4285
aS'-09d31\'03.1"'
p4286
aS'2000.'
p4287
asS'2343+538'
p4288
(lp4289
S'23h43m48.40s'
p4290
aS'+53d48\'40.8"'
p4291
aS'2000.'
p4292
asS'0702+445'
p4293
(lp4294
S'07h02m53.68s'
p4295
aS'+44d31\'11.9"'
p4296
aS'2000.'
p4297
asS'2134-018'
p4298
(lp4299
S'21h34m10.31s'
p4300
aS'-01d53\'17.2"'
p4301
aS'2000.'
p4302
asS'B1117+146'
p4303
(lp4304
S'11h17m50.90s'
p4305
aS'+14d37\'32.5"'
p4306
aS'1950.'
p4307
asS'0744+378'
p4308
(lp4309
S'07h44m17.46s'
p4310
aS'+37d53\'17.2"'
p4311
aS'2000.'
p4312
asS'1048+717'
p4313
(lp4314
S'10h48m27.62s'
p4315
aS'+71d43\'35.9"'
p4316
aS'2000.'
p4317
asS'2006+644'
p4318
(lp4319
S'20h06m17.69s'
p4320
aS'+64d24\'45.4"'
p4321
aS'2000.'
p4322
asS'1125+261'
p4323
(lp4324
S'11h25m53.71s'
p4325
aS'+26d10\'20.0"'
p4326
aS'2000.'
p4327
asS'0541+532'
p4328
(lp4329
S'05h41m16.17s'
p4330
aS'+53d12\'24.8"'
p4331
aS'2000.'
p4332
asS'2129-183'
p4333
(lp4334
S'21h29m21.42s'
p4335
aS'-18d21\'22.9"'
p4336
aS'2000.'
p4337
asS'1443+250'
p4338
(lp4339
S'14h43m56.89s'
p4340
aS'+25d01\'44.5"'
p4341
aS'2000.'
p4342
asS'3C20.0'
p4343
(lp4344
S'00h40m19.70s'
p4345
aS'+51d47\'07.2"'
p4346
aS'1950.'
p4347
asS'2151+058'
p4348
(lp4349
S'21h51m37.88s'
p4350
aS'+05d52\'13.0"'
p4351
aS'2000.'
p4352
asS'1335+587'
p4353
(lp4354
S'13h35m25.93s'
p4355
aS'+58d44\'00.3"'
p4356
aS'2000.'
p4357
asS'1007+139'
p4358
(lp4359
S'10h07m41.50s'
p4360
aS'+13d56\'29.6"'
p4361
aS'2000.'
p4362
asS'1110+604'
p4363
(lp4364
S'11h10m13.09s'
p4365
aS'+60d28\'42.6"'
p4366
aS'2000.'
p4367
asS'0957+553'
p4368
(lp4369
S'09h57m38.17s'
p4370
aS'+55d22\'58.0"'
p4371
aS'2000.'
p4372
asS'1445+099'
p4373
(lp4374
S'14h45m16.47s'
p4375
aS'+09d58\'36.1"'
p4376
aS'2000.'
p4377
asS'0309+104'
p4378
(lp4379
S'03h09m03.62s'
p4380
aS'+10d29\'16.3"'
p4381
aS'2000.'
p4382
asS'0815+365'
p4383
(lp4384
S'08h15m25.94s'
p4385
aS'+36d35\'15.1"'
p4386
aS'2000.'
p4387
asS'1433-158'
p4388
(lp4389
S'14h33m21.47s'
p4390
aS'-15d48\'44.6"'
p4391
aS'2000.'
p4392
asS'1716+218'
p4393
(lp4394
S'17h16m11.19s'
p4395
aS'+21d52\'13.7"'
p4396
aS'2000.'
p4397
asS'0858+141'
p4398
(lp4399
S'08h58m41.55s'
p4400
aS'+14d09\'44.6"'
p4401
aS'2000.'
p4402
asS'1239-103'
p4403
(lp4404
S'12h39m43.07s'
p4405
aS'-10d23\'28.8"'
p4406
aS'2000.'
p4407
asS'0808+498'
p4408
(lp4409
S'08h08m39.67s'
p4410
aS'+49d50\'36.5"'
p4411
aS'2000.'
p4412
asS'0745+317'
p4413
(lp4414
S'07h45m41.67s'
p4415
aS'+31d42\'56.6"'
p4416
aS'2000.'
p4417
asS'0655+541'
p4418
(lp4419
S'06h55m14.82s'
p4420
aS'+54d08\'58.4"'
p4421
aS'2000.'
p4422
asS'1150-003'
p4423
(lp4424
S'11h50m43.87s'
p4425
aS'-00d23\'54.2"'
p4426
aS'2000.'
p4427
asS'2354-152'
p4428
(lp4429
S'23h54m30.20s'
p4430
aS'-15d13\'11.2"'
p4431
aS'2000.'
p4432
asS'0725-009'
p4433
(lp4434
S'07h25m50.64s'
p4435
aS'-00d54\'56.5"'
p4436
aS'2000.'
p4437
asS'0717+456'
p4438
(lp4439
S'07h17m51.85s'
p4440
aS'+45d38\'03.3"'
p4441
aS'2000.'
p4442
asS'1436+636'
p4443
(lp4444
S'14h36m45.80s'
p4445
aS'+63d36\'37.9"'
p4446
aS'2000.'
p4447
asS'0824+558'
p4448
(lp4449
S'08h24m47.24s'
p4450
aS'+55d52\'42.7"'
p4451
aS'2000.'
p4452
asS'2257+077'
p4453
(lp4454
S'22h57m17.30s'
p4455
aS'+07d43\'12.3"'
p4456
aS'2000.'
p4457
asS'2011-067'
p4458
(lp4459
S'20h11m14.22s'
p4460
aS'-06d44\'03.6"'
p4461
aS'2000.'
p4462
asS'1041+027'
p4463
(lp4464
S'10h41m38.88s'
p4465
aS'+02d42\'30.8"'
p4466
aS'2000.'
p4467
asS'1944+548'
p4468
(lp4469
S'19h44m31.51s'
p4470
aS'+54d48\'07.1"'
p4471
aS'2000.'
p4472
asS'1911-201'
p4473
(lp4474
S'19h11m09.65s'
p4475
aS'-20d06\'55.1"'
p4476
aS'2000.'
p4477
asS'0405-131'
p4478
(lp4479
S'04h05m34.00s'
p4480
aS'-13d08\'13.7"'
p4481
aS'2000.'
p4482
asS'0025-260'
p4483
(lp4484
S'00h25m49.17s'
p4485
aS'-26d02\'12.7"'
p4486
aS'2000.'
p4487
asS'2300+169'
p4488
(lp4489
S'23h00m42.99s'
p4490
aS'+16d55\'14.4"'
p4491
aS'2000.'
p4492
asS'0721+713'
p4493
(lp4494
S'07h21m53.45s'
p4495
aS'+71d20\'36.4"'
p4496
aS'2000.'
p4497
asS'0042-442'
p4498
(lp4499
S'00h42m09.42s'
p4500
aS'-44d14\'15.6"'
p4501
aS'2000.'
p4502
asS'0407+077'
p4503
(lp4504
S'04h07m29.09s'
p4505
aS'+07d42\'07.5"'
p4506
aS'2000.'
p4507
asS'0501-019'
p4508
(lp4509
S'05h01m12.81s'
p4510
aS'-01d59\'14.3"'
p4511
aS'2000.'
p4512
asS'2225-049'
p4513
(lp4514
S'22h25m47.26s'
p4515
aS'-04d57\'01.4"'
p4516
aS'2000.'
p4517
asS'0713+438'
p4518
(lp4519
S'07h13m38.16s'
p4520
aS'+43d49\'17.2"'
p4521
aS'2000.'
p4522
asS'1822A'
p4523
(lp4524
S'18h02m28.70s'
p4525
aS'-09d38\'56.8"'
p4526
aS'2000.'
p4527
asS'1426+364'
p4528
(lp4529
S'14h26m37.09s'
p4530
aS'+36d25\'09.6"'
p4531
aS'2000.'
p4532
asS'0521-207'
p4533
(lp4534
S'05h21m38.90s'
p4535
aS'-20d47\'39.4"'
p4536
aS'2000.'
p4537
asS'1313+549'
p4538
(lp4539
S'13h13m37.85s'
p4540
aS'+54d58\'23.9"'
p4541
aS'2000.'
p4542
asS'0530-250'
p4543
(lp4544
S'05h30m07.96s'
p4545
aS'-25d03\'29.9"'
p4546
aS'2000.'
p4547
asS'1623-116'
p4548
(lp4549
S'16h23m59.52s'
p4550
aS'-11d40\'43.8"'
p4551
aS'2000.'
p4552
asS'0141-094'
p4553
(lp4554
S'01h41m25.83s'
p4555
aS'-09d28\'43.7"'
p4556
aS'2000.'
p4557
asS'0741+312'
p4558
(lp4559
S'07h41m10.70s'
p4560
aS'+31d12\'00.2"'
p4561
aS'2000.'
p4562
asS'1351-148'
p4563
(lp4564
S'13h51m52.65s'
p4565
aS'-14d49\'14.9"'
p4566
aS'2000.'
p4567
asS'1209+413'
p4568
(lp4569
S'12h09m22.79s'
p4570
aS'+41d19\'41.4"'
p4571
aS'2000.'
p4572
asS'0432+416'
p4573
(lp4574
S'04h32m36.50s'
p4575
aS'+41d38\'28.4"'
p4576
aS'2000.'
p4577
asS'3C245A'
p4578
(lp4579
S'10h42m22.00s'
p4580
aS'+12d05\'46.0"'
p4581
aS'1993.'
p4582
asS'2000-178'
p4583
(lp4584
S'20h00m57.09s'
p4585
aS'-17d48\'57.7"'
p4586
aS'2000.'
p4587
asS'3C245B'
p4588
(lp4589
S'11h38m49.00s'
p4590
aS'-13d48\'21.0"'
p4591
aS'1993.'
p4592
asS'2348-165'
p4593
(lp4594
S'23h48m02.61s'
p4595
aS'-16d31\'12.0"'
p4596
aS'2000.'
p4597
asS'0449-391'
p4598
(lp4599
S'04h49m42.26s'
p4600
aS'-39d11\'09.1"'
p4601
aS'2000.'
p4602
asS'1935+205'
p4603
(lp4604
S'19h35m10.47s'
p4605
aS'+20d31\'54.2"'
p4606
aS'2000.'
p4607
asS'0129+236'
p4608
(lp4609
S'01h29m59.80s'
p4610
aS'+23d38\'20.7"'
p4611
aS'2000.'
p4612
asS'1425-299'
p4613
(lp4614
S'14h25m29.12s'
p4615
aS'-29d59\'54.3"'
p4616
aS'2000.'
p4617
asS'0340-213'
p4618
(lp4619
S'03h40m35.61s'
p4620
aS'-21d19\'31.2"'
p4621
aS'2000.'
p4622
asS'1608+104'
p4623
(lp4624
S'16h08m46.20s'
p4625
aS'+10d29\'07.8"'
p4626
aS'2000.'
p4627
asS'0241-082'
p4628
(lp4629
S'02h41m04.80s'
p4630
aS'-08d15\'20.8"'
p4631
aS'2000.'
p4632
asS'1556+200'
p4633
(lp4634
S'15h56m10.02s'
p4635
aS'+20d04\'20.5"'
p4636
aS'2000.'
p4637
asS'2147+094'
p4638
(lp4639
S'21h47m10.16s'
p4640
aS'+09d29\'46.7"'
p4641
aS'2000.'
p4642
asS'1744-312'
p4643
(lp4644
S'17h44m23.58s'
p4645
aS'-31d16\'36.0"'
p4646
aS'2000.'
p4647
asS'B0518+165'
p4648
(lp4649
S'05h18m16.53s'
p4650
aS'+16d35\'36.8"'
p4651
aS'1950.'
p4652
asS'0646+448'
p4653
(lp4654
S'06h46m32.03s'
p4655
aS'+44d51\'16.6"'
p4656
aS'2000.'
p4657
asS'1639+539'
p4658
(lp4659
S'16h39m39.84s'
p4660
aS'+53d57\'47.1"'
p4661
aS'2000.'
p4662
asS'2359+388'
p4663
(lp4664
S'23h59m33.18s'
p4665
aS'+38d50\'42.3"'
p4666
aS'2000.'
p4667
asS'3C273'
p4668
(lp4669
S'12h26m33.24s'
p4670
aS'+02d19\'43.3"'
p4671
aS'1950.'
p4672
asS'0738-333'
p4673
(lp4674
S'07h38m16.95s'
p4675
aS'-33d22\'12.8"'
p4676
aS'2000.'
p4677
asS'2023+318'
p4678
(lp4679
S'20h23m19.02s'
p4680
aS'+31d53\'02.3"'
p4681
aS'2000.'
p4682
asS'0223+400'
p4683
(lp4684
S'02h23m42.80s'
p4685
aS'+40d00\'54.3"'
p4686
aS'2000.'
p4687
asS'3C33'
p4688
(lp4689
S'01h06m12.08s'
p4690
aS'+13d02\'33.4"'
p4691
aS'1950.'
p4692
asS'3C31'
p4693
(lp4694
S'01h04m42.0s'
p4695
aS'+32d08\'00"'
p4696
aS'1950.'
p4697
asS'2015+341'
p4698
(lp4699
S'20h15m28.84s'
p4700
aS'+34d10\'39.4"'
p4701
aS'2000.'
p4702
asS'0149+189'
p4703
(lp4704
S'01h49m49.73s'
p4705
aS'+18d57\'20.5"'
p4706
aS'2000.'
p4707
asS'ZENITH'
p4708
(lp4709
S'02h20m00.00s'
p4710
aS'+19d06\'00.0"'
p4711
aS'1950.'
p4712
asS'1018-317'
p4713
(lp4714
S'10h18m09.28s'
p4715
aS'-31d44\'14.1"'
p4716
aS'2000.'
p4717
asS'1756+578'
p4718
(lp4719
S'17h56m03.63s'
p4720
aS'+57d48\'48.0"'
p4721
aS'2000.'
p4722
asS'0020+156'
p4723
(lp4724
S'00h20m25.32s'
p4725
aS'+15d41\'26.6"'
p4726
aS'2000.'
p4727
asS'0413-345'
p4728
(lp4729
S'04h13m00.94s'
p4730
aS'-34d30\'10.2"'
p4731
aS'2000.'
p4732
asS'2243-257'
p4733
(lp4734
S'22h43m26.36s'
p4735
aS'-25d44\'27.0"'
p4736
aS'2000.'
p4737
asS'1449+632'
p4738
(lp4739
S'14h49m21.72s'
p4740
aS'+63d16\'14.5"'
p4741
aS'2000.'
p4742
asS'1143+221'
p4743
(lp4744
S'11h43m25.09s'
p4745
aS'+22d06\'56.1"'
p4746
aS'2000.'
p4747
asS'3C98'
p4748
(lp4749
S'03h56m10.40s'
p4750
aS'+10d17\'34.0"'
p4751
aS'1950.'
p4752
asS'2151+071'
p4753
(lp4754
S'21h51m32.00s'
p4755
aS'+07d09\'26.5"'
p4756
aS'2000.'
p4757
asS'2301+374'
p4758
(lp4759
S'23h01m27.74s'
p4760
aS'+37d26\'49.2"'
p4761
aS'2000.'
p4762
asS'0915+295'
p4763
(lp4764
S'09h15m52.40s'
p4765
aS'+29d33\'24.0"'
p4766
aS'2000.'
p4767
asS'CYGA'
p4768
(lp4769
S'19h57m45.s'
p4770
aS'+40d36\'00.0"'
p4771
aS'1950.'
p4772
asS'1113+147'
p4773
(lp4774
S'11h13m58.70s'
p4775
aS'+14d42\'27.0"'
p4776
aS'2000.'
p4777
asS'1811-209'
p4778
(lp4779
S'18h11m06.80s'
p4780
aS'-20d55\'03.4"'
p4781
aS'2000.'
p4782
asS'1314+531'
p4783
(lp4784
S'13h14m43.83s'
p4785
aS'+53d06\'27.7"'
p4786
aS'2000.'
p4787
asS'0336+057'
p4788
(lp4789
S'03h36m43.07s'
p4790
aS'+05d45\'58.2"'
p4791
aS'2000.'
p4792
asS'2123+055'
p4793
(lp4794
S'21h23m44.52s'
p4795
aS'+05d35\'22.1"'
p4796
aS'2000.'
p4797
asS'2236+284'
p4798
(lp4799
S'22h36m22.47s'
p4800
aS'+28d28\'57.4"'
p4801
aS'2000.'
p4802
asS'1358+476'
p4803
(lp4804
S'13h58m40.66s'
p4805
aS'+47d37\'58.3"'
p4806
aS'2000.'
p4807
asS'0539-286'
p4808
(lp4809
S'05h39m54.28s'
p4810
aS'-28d39\'55.9"'
p4811
aS'2000.'
p4812
asS'1650-297'
p4813
(lp4814
S'16h50m39.54s'
p4815
aS'-29d43\'47.0"'
p4816
aS'2000.'
p4817
asS'1206+642'
p4818
(lp4819
S'12h06m24.69s'
p4820
aS'+64d13\'37.3"'
p4821
aS'2000.'
p4822
asS'0541-056'
p4823
(lp4824
S'05h41m38.08s'
p4825
aS'-05d41\'49.4"'
p4826
aS'2000.'
p4827
asS'1500+478'
p4828
(lp4829
S'15h00m48.65s'
p4830
aS'+47d51\'15.5"'
p4831
aS'2000.'
p4832
asS'1924+334'
p4833
(lp4834
S'19h24m17.48s'
p4835
aS'+33d29\'29.7"'
p4836
aS'2000.'
p4837
asS'1347-080'
p4838
(lp4839
S'13h47m01.64s'
p4840
aS'-08d03\'22.4"'
p4841
aS'2000.'
p4842
asS'2035-349'
p4843
(lp4844
S'20h35m47.81s'
p4845
aS'-34d54\'08.9"'
p4846
aS'2000.'
p4847
asS'2241+413'
p4848
(lp4849
S'22h41m07.21s'
p4850
aS'+41d20\'11.6"'
p4851
aS'2000.'
p4852
asS'1327+221'
p4853
(lp4854
S'13h27m00.86s'
p4855
aS'+22d10\'50.2"'
p4856
aS'2000.'
p4857
asS'1339+634'
p4858
(lp4859
S'13h39m23.78s'
p4860
aS'+63d28\'58.4"'
p4861
aS'2000.'
p4862
asS'1938-155'
p4863
(lp4864
S'19h38m24.48s'
p4865
aS'-15d31\'34.2"'
p4866
aS'1950.0'
p4867
asS'3C83.1'
p4868
(lp4869
S'03h15m00.00s'
p4870
aS'+41d41\'12.0"'
p4871
aS'1950.'
p4872
asS'0826-225'
p4873
(lp4874
S'08h26m01.57s'
p4875
aS'-22d30\'27.2"'
p4876
aS'2000.'
p4877
asS'2158-302'
p4878
(lp4879
S'21h58m52.06s'
p4880
aS'-30d13\'32.1"'
p4881
aS'2000.'
p4882
asS'1347+122'
p4883
(lp4884
S'13h47m33.36s'
p4885
aS'+12d17\'24.2"'
p4886
aS'2000.'
p4887
asS'1357-177'
p4888
(lp4889
S'13h57m06.08s'
p4890
aS'-17d44\'01.8"'
p4891
aS'2000.'
p4892
asS'1950+081'
p4893
(lp4894
S'19h50m05.54s'
p4895
aS'+08d07\'14.0"'
p4896
aS'2000.'
p4897
asS'0837+584'
p4898
(lp4899
S'08h37m22.41s'
p4900
aS'+58d25\'01.8"'
p4901
aS'2000.'
p4902
asS'2115+295'
p4903
(lp4904
S'21h15m29.41s'
p4905
aS'+29d33\'38.4"'
p4906
aS'2000.'
p4907
asS'1747+469'
p4908
(lp4909
S'17h47m26.65s'
p4910
aS'+46d58\'50.9"'
p4911
aS'2000.'
p4912
asS'1419+271'
p4913
(lp4914
S'14h19m59.30s'
p4915
aS'+27d06\'25.6"'
p4916
aS'2000.'
p4917
asS'1616+049'
p4918
(lp4919
S'16h16m37.56s'
p4920
aS'+04d59\'32.7"'
p4921
aS'2000.'
p4922
asS'3C84'
p4923
(lp4924
S'03h16m29.56s'
p4925
aS'+41d19\'51.9"'
p4926
aS'1950.'
p4927
asS'0745+101'
p4928
(lp4929
S'07h45m33.06s'
p4930
aS'+10d11\'12.7"'
p4931
aS'2000.'
p4932
asS'1039-156'
p4933
(lp4934
S'10h39m06.71s'
p4935
aS'-15d41\'06.6"'
p4936
aS'2000.'
p4937
asS'1714-252'
p4938
(lp4939
S'17h14m47.86s'
p4940
aS'-25d14\'35.1"'
p4941
aS'2000.'
p4942
asS'0415+448'
p4943
(lp4944
S'04h15m56.52s'
p4945
aS'+44d52\'49.7"'
p4946
aS'2000.'
p4947
asS'0359+509'
p4948
(lp4949
S'03h59m29.75s'
p4950
aS'+50d57\'50.2"'
p4951
aS'2000.'
p4952
asS'0835-451'
p4953
(lp4954
S'08h35m20.66s'
p4955
aS'-45d10\'35.2"'
p4956
aS'2000.'
p4957
asS'1832+285'
p4958
(lp4959
S'18h32m50.19s'
p4960
aS'+28d33\'36.0"'
p4961
aS'2000.'
p4962
asS'1101+724'
p4963
(lp4964
S'11h01m48.81s'
p4965
aS'+72d25\'37.1"'
p4966
aS'2000.'
p4967
asS'1829+487'
p4968
(lp4969
S'18h29m31.78s'
p4970
aS'+48d44\'46.2"'
p4971
aS'2000.'
p4972
asS'0409-126'
p4973
(lp4974
S'04h09m05.77s'
p4975
aS'-12d38\'48.1"'
p4976
aS'2000.'
p4977
asS'0149+059'
p4978
(lp4979
S'01h49m22.37s'
p4980
aS'+05d55\'53.6"'
p4981
aS'2000.'
p4982
asS'0625+146'
p4983
(lp4984
S'06h25m45.92s'
p4985
aS'+14d40\'19.8"'
p4986
aS'2000.'
p4987
asS'0222-346'
p4988
(lp4989
S'02h22m56.40s'
p4990
aS'-34d41\'28.7"'
p4991
aS'2000.'
p4992
asS'3C283'
p4993
(lp4994
S'13h11m39.33s'
p4995
aS'-22d16\'41.7"'
p4996
aS'2000.'
p4997
asS'2257+419'
p4998
(lp4999
S'22h57m22.07s'
p5000
aS'+41d54\'16.5"'
p5001
aS'2000.'
p5002
asS'0725+144'
p5003
(lp5004
S'07h25m16.81s'
p5005
aS'+14d25\'13.7"'
p5006
aS'2000.'
p5007
asS'2248+373'
p5008
(lp5009
S'22h48m37.91s'
p5010
aS'+37d18\'12.5"'
p5011
aS'2000.'
p5012
asS'1820-097'
p5013
(lp5014
S'18h20m38.11s'
p5015
aS'-09d47\'17.1"'
p5016
aS'2000.'
p5017
asS'1956-076'
p5018
(lp5019
S'19h56m11.09s'
p5020
aS'-07d36\'54.6"'
p5021
aS'2000.'
p5022
asS'1118-465'
p5023
(lp5024
S'11h18m26.96s'
p5025
aS'-46d34\'15.0"'
p5026
aS'2000.'
p5027
asS'0310+382'
p5028
(lp5029
S'03h10m49.88s'
p5030
aS'+38d14\'53.8"'
p5031
aS'2000.'
p5032
asS'1751-253'
p5033
(lp5034
S'17h51m51.26s'
p5035
aS'-25d24\'00.1"'
p5036
aS'2000.'
p5037
asS'1513-212'
p5038
(lp5039
S'15h13m56.98s'
p5040
aS'-21d14\'57.4"'
p5041
aS'2000.'
p5042
asS'1504+104'
p5043
(lp5044
S'15h04m24.98s'
p5045
aS'+10d29\'39.2"'
p5046
aS'2000.'
p5047
asS'0837+249'
p5048
(lp5049
S'08h37m40.25s'
p5050
aS'+24d54\'23.1"'
p5051
aS'2000.'
p5052
asS'3C327'
p5053
(lp5054
S'15h59m58.50s'
p5055
aS'+02d06\'16.0"'
p5056
aS'1950.'
p5057
asS'0920+446'
p5058
(lp5059
S'09h20m58.46s'
p5060
aS'+44d41\'54.0"'
p5061
aS'2000.'
p5062
asS'0153-331'
p5063
(lp5064
S'01h53m10.12s'
p5065
aS'-33d10\'25.9"'
p5066
aS'2000.'
p5067
asS'2326-404'
p5068
(lp5069
S'23h26m34.14s'
p5070
aS'-40d27\'15.2"'
p5071
aS'2000.'
p5072
asS'3C147F'
p5073
(lp5074
S'05h38m43.50s'
p5075
aS'+49d49\'42.7"'
p5076
aS'1950.'
p5077
asS'1146-289'
p5078
(lp5079
S'11h46m26.20s'
p5080
aS'-28d59\'18.7"'
p5081
aS'2000.'
p5082
asS'0113+023'
p5083
(lp5084
S'01h13m43.14s'
p5085
aS'+02d22\'17.3"'
p5086
aS'2000.'
p5087
asS'0119+321'
p5088
(lp5089
S'01h19m35.00s'
p5090
aS'+32d10\'50.1"'
p5091
aS'2000.'
p5092
asS'1707+456'
p5093
(lp5094
S'17h07m17.75s'
p5095
aS'+45d36\'10.6"'
p5096
aS'2000.'
p5097
asS'B0127+233'
p5098
(lp5099
S'01h27m15.08s'
p5100
aS'+23d22\'52.7"'
p5101
aS'1950.'
p5102
asS'1700+685'
p5103
(lp5104
S'17h00m09.29s'
p5105
aS'+68d30\'07.0"'
p5106
aS'2000.'
p5107
asS'2048+431'
p5108
(lp5109
S'20h48m19.53s'
p5110
aS'+43d10\'42.1"'
p5111
aS'2000.'
p5112
asS'1902-234'
p5113
(lp5114
S'19h02m49.25s'
p5115
aS'-23d29\'52.1"'
p5116
aS'2000.'
p5117
asS'1354-021'
p5118
(lp5119
S'13h54m06.90s'
p5120
aS'-02d06\'03.2"'
p5121
aS'2000.'
p5122
asS'1820-254'
p5123
(lp5124
S'18h20m57.85s'
p5125
aS'-25d28\'12.6"'
p5126
aS'2000.'
p5127
asS'0909+013'
p5128
(lp5129
S'09h09m10.09s'
p5130
aS'+01d21\'35.6"'
p5131
aS'2000.'
p5132
asS'1840+390'
p5133
(lp5134
S'18h40m57.15s'
p5135
aS'+39d00\'45.7"'
p5136
aS'2000.'
p5137
asS'2040-251'
p5138
(lp5139
S'20h40m08.77s'
p5140
aS'-25d07\'46.7"'
p5141
aS'2000.'
p5142
asS'1427-421'
p5143
(lp5144
S'14h27m56.30s'
p5145
aS'-42d06\'19.4"'
p5146
aS'2000.'
p5147
asS'1833-210'
p5148
(lp5149
S'18h33m39.93s'
p5150
aS'-21d03\'40.8"'
p5151
aS'2000.'
p5152
asS'0613+131'
p5153
(lp5154
S'06h13m57.69s'
p5155
aS'+13d06\'45.4"'
p5156
aS'2000.'
p5157
asS'1800+784'
p5158
(lp5159
S'18h00m45.68s'
p5160
aS'+78d28\'04.0"'
p5161
aS'2000.'
p5162
asS'1625+415'
p5163
(lp5164
S'16h25m57.67s'
p5165
aS'+41d34\'40.6"'
p5166
aS'2000.'
p5167
asS'1126+452'
p5168
(lp5169
S'11h26m57.66s'
p5170
aS'+45d16\'06.3"'
p5171
aS'2000.'
p5172
asS'1730'
p5173
(lp5174
S'17h33m02.71s'
p5175
aS'-13d04\'49.6"'
p5176
aS'2000.'
p5177
asS'0136+478'
p5178
(lp5179
S'01h36m58.59s'
p5180
aS'+47d51\'29.1"'
p5181
aS'2000.'
p5182
asS'*'
p5183
(lp5184
S'Pulsar'
p5185
aS'Calibrators'
p5186
asS'0334-401'
p5187
(lp5188
S'03h34m13.65s'
p5189
aS'-40d08\'25.4"'
p5190
aS'2000.'
p5191
asS'1058+015'
p5192
(lp5193
S'10h58m29.61s'
p5194
aS'+01d33\'58.8"'
p5195
aS'2000.'
p5196
asS'1458+373'
p5197
(lp5198
S'14h58m44.79s'
p5199
aS'+37d20\'21.6"'
p5200
aS'2000.'
p5201
asS'1912+376'
p5202
(lp5203
S'19h12m25.12s'
p5204
aS'+37d40\'36.7"'
p5205
aS'2000.'
p5206
asS'1323-448'
p5207
(lp5208
S'13h23m04.25s'
p5209
aS'-44d52\'33.9"'
p5210
aS'2000.'
p5211
asS'2131-206'
p5212
(lp5213
S'21h31m01.49s'
p5214
aS'-20d36\'56.4"'
p5215
aS'2000.'
p5216
asS'1507-168'
p5217
(lp5218
S'15h07m04.79s'
p5219
aS'-16d52\'30.3"'
p5220
aS'2000.'
p5221
asS'1230+123'
p5222
(lp5223
S'12h30m49.42s'
p5224
aS'+12d23\'28.0"'
p5225
aS'2000.'
p5226
asS'1015-31'
p5227
(lp5228
S'10h15m53.47s'
p5229
aS'-31d29\'12.2"'
p5230
aS'1950.'
p5231
asS'1459+716'
p5232
(lp5233
S'14h59m07.58s'
p5234
aS'+71d40\'19.9"'
p5235
aS'2000.'
p5236
asS'0522-364'
p5237
(lp5238
S'05h22m57.98s'
p5239
aS'-36d27\'30.8"'
p5240
aS'2000.'
p5241
asS'1506+426'
p5242
(lp5243
S'15h06m53.04s'
p5244
aS'+42d39\'23.0"'
p5245
aS'2000.'
p5246
asS'1333-33'
p5247
(lp5248
S'13h33m45.5s'
p5249
aS'-33d42\'44.0"'
p5250
aS'1950.'
p5251
asS'1256+473'
p5252
(lp5253
S'12h56m57.23s'
p5254
aS'+47d20\'19.8"'
p5255
aS'2000.'
p5256
asS'1902+319'
p5257
(lp5258
S'19h02m55.94s'
p5259
aS'+31d59\'41.7"'
p5260
aS'2000.'
p5261
asS'0215-023'
p5262
(lp5263
S'02h15m42.02s'
p5264
aS'-02d22\'57.0"'
p5265
aS'2000.'
p5266
asS'0842+185'
p5267
(lp5268
S'08h42m05.09s'
p5269
aS'+18d35\'41.0"'
p5270
aS'2000.'
p5271
asS'1114+406'
p5272
(lp5273
S'11h14m38.52s'
p5274
aS'+40d37\'19.9"'
p5275
aS'2000.'
p5276
asS'2314-449'
p5277
(lp5278
S'23h14m09.38s'
p5279
aS'-44d55\'49.2"'
p5280
aS'2000.'
p5281
asS'1127+568'
p5282
(lp5283
S'11h27m40.14s'
p5284
aS'+56d50\'14.8"'
p5285
aS'2000.'
p5286
asS'0837-198'
p5287
(lp5288
S'08h37m11.18s'
p5289
aS'-19d51\'56.8"'
p5290
aS'2000.'
p5291
asS'1246-075'
p5292
(lp5293
S'12h46m04.23s'
p5294
aS'-07d30\'46.6"'
p5295
aS'2000.'
p5296
asS'1106-211'
p5297
(lp5298
S'11h06m22.32s'
p5299
aS'-21d08\'59.6"'
p5300
aS'2000.'
p5301
asS'1321+111'
p5302
(lp5303
S'13h21m18.81s'
p5304
aS'+11d06\'49.5"'
p5305
aS'2000.'
p5306
asS'1701-299'
p5307
(lp5308
S'17h01m09.76s'
p5309
aS'-29d54\'39.2"'
p5310
aS'2000.'
p5311
asS'0111+391'
p5312
(lp5313
S'01h11m37.32s'
p5314
aS'+39d06\'28.1"'
p5315
aS'2000.'
p5316
asS'1217+301'
p5317
(lp5318
S'12h17m52.08s'
p5319
aS'+30d07\'00.6"'
p5320
aS'2000.'
p5321
asS'0220-019'
p5322
(lp5323
S'02h20m54.15s'
p5324
aS'-01d56\'53.6"'
p5325
aS'2000.'
p5326
asS'0914+027'
p5327
(lp5328
S'09h14m37.91s'
p5329
aS'+02d45\'59.2"'
p5330
aS'2000.'
p5331
asS'1801+138'
p5332
(lp5333
S'18h01m38.90s'
p5334
aS'+13d51\'23.8"'
p5335
aS'2000.'
p5336
asS'1728+502'
p5337
(lp5338
S'17h28m18.62s'
p5339
aS'+50d13\'10.5"'
p5340
aS'2000.'
p5341
asS'2321+275'
p5342
(lp5343
S'23h21m59.86s'
p5344
aS'+27d32\'46.4"'
p5345
aS'2000.'
p5346
asS'1927+612'
p5347
(lp5348
S'19h27m30.43s'
p5349
aS'+61d17\'32.7"'
p5350
aS'2000.'
p5351
asS'0044-355'
p5352
(lp5353
S'00h44m41.23s'
p5354
aS'-35d30\'41.6"'
p5355
aS'2000.'
p5356
asS'2152-284'
p5357
(lp5358
S'21h52m03.74s'
p5359
aS'-28d28\'28.2"'
p5360
aS'2000.'
p5361
asS'0825+031'
p5362
(lp5363
S'08h25m50.34s'
p5364
aS'+03d09\'24.5"'
p5365
aS'2000.'
p5366
asS'1756+155'
p5367
(lp5368
S'17h56m53.10s'
p5369
aS'+15d35\'20.8"'
p5370
aS'2000.'
p5371
asS'1549+026'
p5372
(lp5373
S'15h49m29.44s'
p5374
aS'+02d37\'01.2"'
p5375
aS'2000.'
p5376
asS'1225+392'
p5377
(lp5378
S'12h25m50.57s'
p5379
aS'+39d14\'22.7"'
p5380
aS'2000.'
p5381
asS'2355+498'
p5382
(lp5383
S'23h55m09.46s'
p5384
aS'+49d50\'08.3"'
p5385
aS'2000.'
p5386
asS'1454-377'
p5387
(lp5388
S'14h54m27.41s'
p5389
aS'-37d47\'33.1"'
p5390
aS'2000.'
p5391
asS'0521-36'
p5392
(lp5393
S'05h21m12.9s'
p5394
aS'-36d30\'16.5"'
p5395
aS'1950.'
p5396
asS'1017+612'
p5397
(lp5398
S'10h17m25.89s'
p5399
aS'+61d16\'27.5"'
p5400
aS'2000.'
p5401
asS'B1323+321'
p5402
(lp5403
S'13h23m57.96s'
p5404
aS'+32d09\'43.8"'
p5405
aS'1950.'
p5406
asS'0516-160'
p5407
(lp5408
S'05h16m15.93s'
p5409
aS'-16d03\'07.6"'
p5410
aS'2000.'
p5411
asS'2331-159'
p5412
(lp5413
S'23h31m38.65s'
p5414
aS'-15d56\'57.0"'
p5415
aS'2000.'
p5416
asS'1438+621'
p5417
(lp5418
S'14h38m44.79s'
p5419
aS'+62d11\'54.4"'
p5420
aS'2000.'
p5421
asS'0841+708'
p5422
(lp5423
S'08h41m24.37s'
p5424
aS'+70d53\'42.2"'
p5425
aS'2000.'
p5426
asS'2327-147'
p5427
(lp5428
S'23h27m47.96s'
p5429
aS'-14d47\'55.7"'
p5430
aS'2000.'
p5431
asS'0038+416'
p5432
(lp5433
S'00h38m24.84s'
p5434
aS'+41d37\'06.0"'
p5435
aS'2000.'
p5436
asS'2337-025'
p5437
(lp5438
S'23h37m57.34s'
p5439
aS'-02d30\'57.6"'
p5440
aS'2000.'
p5441
asS'1721+357'
p5442
(lp5443
S'17h21m09.49s'
p5444
aS'+35d42\'16.0"'
p5445
aS'2000.'
p5446
asS'0627-058'
p5447
(lp5448
S'06h27m10.10s'
p5449
aS'-05d53\'04.8"'
p5450
aS'2000.'
p5451
asS'0229+777'
p5452
(lp5453
S'02h29m14.71s'
p5454
aS'+77d43\'16.1"'
p5455
aS'2000.'
p5456
asS'0824+392'
p5457
(lp5458
S'08h24m55.48s'
p5459
aS'+39d16\'41.9"'
p5460
aS'2000.'
p5461
asS'1024+192'
p5462
(lp5463
S'10h24m44.81s'
p5464
aS'+19d12\'20.4"'
p5465
aS'2000.'
p5466
asS'0057+303'
p5467
(lp5468
S'00h57m48.89s'
p5469
aS'+30d21\'08.8"'
p5470
aS'2000.'
p5471
asS'1311+552'
p5472
(lp5473
S'13h11m03.21s'
p5474
aS'+55d13\'54.3"'
p5475
aS'2000.'
p5476
asS'0710+475'
p5477
(lp5478
S'07h10m46.10s'
p5479
aS'+47d32\'11.1"'
p5480
aS'2000.'
p5481
asS'1722-28'
p5482
(lp5483
S'17h22m56.30s'
p5484
aS'-28d31\'46.2"'
p5485
aS'1950.0'
p5486
asS'0424+020'
p5487
(lp5488
S'04h24m08.56s'
p5489
aS'+02d04\'24.9"'
p5490
aS'2000.'
p5491
asS'1159+292'
p5492
(lp5493
S'11h59m31.83s'
p5494
aS'+29d14\'43.8"'
p5495
aS'2000.'
p5496
asS'1044+809'
p5497
(lp5498
S'10h44m23.06s'
p5499
aS'+80d54\'39.4"'
p5500
aS'2000.'
p5501
asS'0003-174'
p5502
(lp5503
S'00h03m22.00s'
p5504
aS'-17d27\'11.8"'
p5505
aS'2000.'
p5506
asS'0141+138'
p5507
(lp5508
S'01h41m09.15s'
p5509
aS'+13d53\'28.0"'
p5510
aS'2000.'
p5511
asS'0530+135'
p5512
(lp5513
S'05h30m56.42s'
p5514
aS'+13d31\'55.2"'
p5515
aS'2000.'
p5516
asS'2139+143'
p5517
(lp5518
S'21h39m01.31s'
p5519
aS'+14d23\'36.0"'
p5520
aS'2000.'
p5521
asS'1734+389'
p5522
(lp5523
S'17h34m20.58s'
p5524
aS'+38d57\'51.4"'
p5525
aS'2000.'
p5526
asS'2136+006'
p5527
(lp5528
S'21h36m38.59s'
p5529
aS'+00d41\'54.2"'
p5530
aS'2000.'
p5531
asS'2130+050'
p5532
(lp5533
S'21h30m32.88s'
p5534
aS'+05d02\'17.5"'
p5535
aS'2000.'
p5536
asS'0442-002'
p5537
(lp5538
S'04h42m38.66s'
p5539
aS'-00d17\'43.4"'
p5540
aS'2000.'
p5541
asS'3C286A'
p5542
(lp5543
S'13h08m49.65s'
p5544
aS'+30d45\'58.6"'
p5545
aS'1950.'
p5546
asS'1957-387'
p5547
(lp5548
S'19h57m59.82s'
p5549
aS'-38d45\'06.4"'
p5550
aS'2000.'
p5551
asS'0804+102'
p5552
(lp5553
S'08h04m47.95s'
p5554
aS'+10d15\'22.5"'
p5555
aS'2000.'
p5556
asS'0303+472'
p5557
(lp5558
S'03h03m35.24s'
p5559
aS'+47d16\'16.3"'
p5560
aS'2000.'
p5561
asS'0738-064'
p5562
(lp5563
S'07h38m55.33s'
p5564
aS'-06d26\'59.4"'
p5565
aS'2000.'
p5566
asS'1001-446'
p5567
(lp5568
S'10h01m59.91s'
p5569
aS'-44d38\'00.6"'
p5570
aS'2000.'
p5571
asS'2311+457'
p5572
(lp5573
S'23h11m47.41s'
p5574
aS'+45d43\'56.0"'
p5575
aS'2000.'
p5576
asS'0024-420'
p5577
(lp5578
S'00h24m42.99s'
p5579
aS'-42d02\'04.0"'
p5580
aS'2000.'
p5581
asS'1642+689'
p5582
(lp5583
S'16h42m07.85s'
p5584
aS'+68d56\'39.8"'
p5585
aS'2000.'
p5586
asS'0021+732'
p5587
(lp5588
S'00h21m27.38s'
p5589
aS'+73d12\'41.9"'
p5590
aS'2000.'
p5591
asS'1927+739'
p5592
(lp5593
S'19h27m48.50s'
p5594
aS'+73d58\'01.6"'
p5595
aS'2000.'
p5596
asS'1020-428'
p5597
(lp5598
S'10h20m03.35s'
p5599
aS'-42d51\'41.5"'
p5600
aS'2000.'
p5601
asS'0746+258'
p5602
(lp5603
S'07h46m25.87s'
p5604
aS'+25d49\'02.1"'
p5605
aS'2000.'
p5606
asS'1016+206'
p5607
(lp5608
S'10h16m44.33s'
p5609
aS'+20d37\'47.3"'
p5610
aS'2000.'
p5611
asS'1209-241'
p5612
(lp5613
S'12h09m02.45s'
p5614
aS'-24d06\'20.8"'
p5615
aS'2000.'
p5616
asS'3C48'
p5617
(lp5618
S'01h34m49.83s'
p5619
aS'+32d54\'20.5"'
p5620
aS'1950.'
p5621
asS'0839+033'
p5622
(lp5623
S'08h39m49.19s'
p5624
aS'+03d19\'53.7"'
p5625
aS'2000.'
p5626
asS'0449+113'
p5627
(lp5628
S'04h49m07.67s'
p5629
aS'+11d21\'28.6"'
p5630
aS'2000.'
p5631
asS'3C287'
p5632
(lp5633
S'13h30m37.69s'
p5634
aS'+25d09\'11.0"'
p5635
aS'2000.'
p5636
asS'3C286'
p5637
(lp5638
S'13h28m49.65s'
p5639
aS'+30d45\'58.6"'
p5640
aS'1950.'
p5641
asS'3C288'
p5642
(lp5643
S'13h38m49.78s'
p5644
aS'+38d51\'11.9"'
p5645
aS'2000.'
p5646
asS'1445-164'
p5647
(lp5648
S'14h45m53.38s'
p5649
aS'-16d29\'01.6"'
p5650
aS'2000.'
p5651
asS'2303-305'
p5652
(lp5653
S'23h03m05.82s'
p5654
aS'-30d30\'11.5"'
p5655
aS'2000.'
p5656
asS'0944+520'
p5657
(lp5658
S'09h44m52.16s'
p5659
aS'+52d02\'34.2"'
p5660
aS'2000.'
p5661
asS'0609-157'
p5662
(lp5663
S'06h09m40.95s'
p5664
aS'-15d42\'40.7"'
p5665
aS'2000.'
p5666
asS'1805+110'
p5667
(lp5668
S'18h05m06.45s'
p5669
aS'+11d01\'31.6"'
p5670
aS'2000.'
p5671
asS'2250+143'
p5672
(lp5673
S'22h50m25.54s'
p5674
aS'+14d19\'50.6"'
p5675
aS'2000.'
p5676
asS'1623+664'
p5677
(lp5678
S'16h23m04.52s'
p5679
aS'+66d24\'01.1"'
p5680
aS'2000.'
p5681
asS'0314+432'
p5682
(lp5683
S'03h14m43.64s'
p5684
aS'+43d14\'05.6"'
p5685
aS'2000.'
p5686
asS'1108+435'
p5687
(lp5688
S'11h08m23.48s'
p5689
aS'+43d30\'53.6"'
p5690
aS'2000.'
p5691
asS'0735-175'
p5692
(lp5693
S'07h35m45.81s'
p5694
aS'-17d35\'48.5"'
p5695
aS'2000.'
p5696
asS'1605-175'
p5697
(lp5698
S'16h05m02.19s'
p5699
aS'-17d34\'14.4"'
p5700
aS'2000.'
p5701
asS'0253+180'
p5702
(lp5703
S'02h53m34.88s'
p5704
aS'+18d05\'42.5"'
p5705
aS'2000.'
p5706
asS'0749+743'
p5707
(lp5708
S'07h49m22.46s'
p5709
aS'+74d20\'41.6"'
p5710
aS'2000.'
p5711
asS'1428-276'
p5712
(lp5713
S'14h28m28.19s'
p5714
aS'-27d41\'51.0"'
p5715
aS'2000.'
p5716
asS'2230+697'
p5717
(lp5718
S'22h30m36.47s'
p5719
aS'+69d46\'28.1"'
p5720
aS'2000.'
p5721
asS'0704+470'
p5722
(lp5723
S'07h04m09.56s'
p5724
aS'+47d00\'56.0"'
p5725
aS'2000.'
p5726
asS'1051-316'
p5727
(lp5728
S'10h51m04.78s'
p5729
aS'-31d38\'14.3"'
p5730
aS'2000.'
p5731
asS'1042+120'
p5732
(lp5733
S'10h42m44.61s'
p5734
aS'+12d03\'31.3"'
p5735
aS'2000.'
p5736
asS'VIRGOA'
p5737
(lp5738
S'12h28m18s'
p5739
aS'+12d40\'00"'
p5740
aS'1950.'
p5741
asS'0414+343'
p5742
(lp5743
S'04h14m37.26s'
p5744
aS'+34d18\'51.1"'
p5745
aS'2000.'
p5746
asS'1658+076'
p5747
(lp5748
S'16h58m09.01s'
p5749
aS'+07d41\'27.5"'
p5750
aS'2000.'
p5751
asS'2035+189'
p5752
(lp5753
S'20h35m33.98s'
p5754
aS'+18d57\'05.4"'
p5755
aS'2000.'
p5756
asS'1221+441'
p5757
(lp5758
S'12h21m27.05s'
p5759
aS'+44d11\'29.7"'
p5760
aS'2000.'
p5761
as.